(lp1
(dp2
S'clinicaltrials.gov'
p3
VNCT00000371.xml
p4
sS'pmid'
p5
S'15502972'
p6
sS'pm_filename'
p7
S'15502972.xml'
p8
sa(dp9
g3
VNCT00000620.xml
p10
sg5
S'18539917'
p11
sg7
S'18539917.xml'
p12
sa(dp13
g3
VNCT00001566.xml
p14
sg5
S'18676758'
p15
sg7
S'18676758.xml'
p16
sa(dp17
g3
VNCT00001656.xml
p18
sg5
S'16818861'
p19
sg7
S'16818861.xml'
p20
sa(dp21
g3
VNCT00001723.xml
p22
sg5
S'15112907'
p23
sg7
S'15112907.xml'
p24
sa(dp25
g3
VNCT00003222.xml
p26
sg5
S'14581425'
p27
sg7
S'14581425.xml'
p28
sa(dp29
g3
VNCT00003224.xml
p30
sg5
S'11595689'
p31
sg7
S'11595689.xml'
p32
sa(dp33
g3
VNCT00003377.xml
p34
sg5
S'19010522'
p35
sg7
S'19010522.xml'
p36
sa(dp37
g3
VNCT00003782.xml
p38
sg5
S'18302020'
p39
sg7
S'18302020.xml'
p40
sa(dp41
g3
VNCT00003896.xml
p42
sg5
S'19464730'
p43
sg7
S'19464730.xml'
p44
sa(dp45
g3
VNCT00004054.xml
p46
sg5
S'18990504'
p47
sg7
S'18990504.xml'
p48
sa(dp49
g3
VNCT00004412.xml
p50
sg5
S'20955402'
p51
sg7
S'20955402.xml'
p52
sa(dp53
g3
VNCT00004562.xml
p54
sg5
S'17105759'
p55
sg7
S'17105759.xml'
p56
sa(dp57
g3
VNCT00004563.xml
p58
sg5
S'16790698'
p59
sg7
S'16790698.xml'
p60
sa(dp61
g3
VNCT00004635.xml
p62
sg5
S'19167733'
p63
sg7
S'19167733.xml'
p64
sa(dp65
g3
VNCT00004978.xml
p66
sg5
S'15206062'
p67
sg7
S'15206062.xml'
p68
sa(dp69
g3
VNCT00004980.xml
p70
sg5
S'15936729'
p71
sg7
S'15936729.xml'
p72
sa(dp73
g3
VNCT00005908.xml
p74
sg5
S'15501952'
p75
sg7
S'15501952.xml'
p76
sa(dp77
g3
VNCT00005947.xml
p78
sg5
S'16809734'
p79
sg7
S'16809734.xml'
p80
sa(dp81
g3
VNCT00006164.xml
p82
sg5
S'19052125'
p83
sg7
S'19052125.xml'
p84
sa(dp85
g3
VNCT00006184.xml
p86
sg5
S'22773122'
p87
sg7
S'22773122.xml'
p88
sa(dp89
g3
VNCT00006409.xml
p90
sg5
S'15570151'
p91
sg7
S'15570151.xml'
p92
sa(dp93
g3
VNCT00007644.xml
p94
sg5
S'7577210'
p95
sg7
S'7577210.xml'
p96
sa(dp97
g3
VNCT00008138.xml
p98
sg5
S'19138791'
p99
sg7
S'19138791.xml'
p100
sa(dp101
g3
VNCT00010257.xml
p102
sg5
S'21502559'
p103
sg7
S'21502559.xml'
p104
sa(dp105
g3
VNCT00010803.xml
p106
sg5
S'19017911'
p107
sg7
S'19017911.xml'
p108
sa(dp109
g3
VNCT00012012.xml
p110
sg5
S'21892091'
p111
sg7
S'21892091.xml'
p112
sa(dp113
g3
VNCT00014911.xml
p114
sg5
S'17005949'
p115
sg7
S'17005949.xml'
p116
sa(dp117
g3
VNCT00016354.xml
p118
sg5
S'17084620'
p119
sg7
S'17084620.xml'
p120
sa(dp121
g3
VNCT00018031.xml
p122
sg5
S'19898214'
p123
sg7
S'19898214.xml'
p124
sa(dp125
g3
VNCT00023452.xml
p126
sg5
S'22150035'
p127
sg7
S'22150035.xml'
p128
sa(dp129
g3
VNCT00023673.xml
p130
sg5
S'20368547'
p131
sg7
S'20368547.xml'
p132
sa(dp133
g3
VNCT00024102.xml
p134
sg5
S'20368559'
p135
sg7
S'20368559.xml'
p136
sa(dp137
g3
VNCT00025662.xml
p138
sg5
S'15817673'
p139
sg7
S'15817673.xml'
p140
sa(dp141
g3
VNCT00027378.xml
p142
sg5
S'19321268'
p143
sg7
S'19321268.xml'
p144
sa(dp145
g3
VNCT00028262.xml
p146
sg5
S'24997880'
p147
sg7
S'24997880.xml'
p148
sa(dp149
g3
VNCT00029172.xml
p150
sg5
S'17303771'
p151
sg7
S'17303771.xml'
p152
sa(dp153
g3
VNCT00030901.xml
p154
sg5
S'16896036'
p155
sg7
S'16896036.xml'
p156
sa(dp157
g3
VNCT00030992.xml
p158
sg5
S'20179242'
p159
sg7
S'20179242.xml'
p160
sa(dp161
g3
VNCT00031447.xml
p162
sg5
S'21991950'
p163
sg7
S'21991950.xml'
p164
sa(dp165
g3
VNCT00031460.xml
p166
sg5
S'21991950'
p167
sg7
S'21991950.xml'
p168
sa(dp169
g3
VNCT00031694.xml
p170
sg5
S'19738452'
p171
sg7
S'19738452.xml'
p172
sa(dp173
g3
VNCT00032487.xml
p174
sg5
S'19092145'
p175
sg7
S'19092145.xml'
p176
sa(dp177
g3
VNCT00032591.xml
p178
sg5
S'20628787'
p179
sg7
S'20628787.xml'
p180
sa(dp181
g3
VNCT00032630.xml
p182
sg5
S'19890125'
p183
sg7
S'19890125.xml'
p184
sa(dp185
g3
VNCT00035815.xml
p186
sg5
S'19029516'
p187
sg7
S'19029516.xml'
p188
sa(dp189
g3
VNCT00039130.xml
p190
sg5
S'24428673'
p191
sg7
S'24428673.xml'
p192
sa(dp193
g3
VNCT00039377.xml
p194
sg5
S'24077846'
p195
sg7
S'24077846.xml'
p196
sa(dp197
g3
VNCT00039741.xml
p198
sg5
S'21288774'
p199
sg7
S'21288774.xml'
p200
sa(dp201
g3
VNCT00039871.xml
p202
sg5
S'21056496'
p203
sg7
S'21056496.xml'
p204
sa(dp205
g3
VNCT00040365.xml
p206
sg5
S'17855015'
p207
sg7
S'17855015.xml'
p208
sa(dp209
g3
VNCT00041067.xml
p210
sg5
S'21826527'
p211
sg7
S'21826527.xml'
p212
sa(dp213
g3
VNCT00042432.xml
p214
sg5
S'15983958'
p215
sg7
S'15983958.xml'
p216
sa(dp217
g3
VNCT00043186.xml
p218
sg5
S'18495508'
p219
sg7
S'18495508.xml'
p220
sa(dp221
g3
VNCT00043979.xml
p222
sg5
S'21896345'
p223
sg7
S'21896345.xml'
p224
sa(dp225
g3
VNCT00044512.xml
p226
sg5
S'16908937'
p227
sg7
S'16908937.xml'
p228
sa(dp229
g3
VNCT00044655.xml
p230
sg5
S'22480442'
p231
sg7
S'22480442.xml'
p232
sa(dp233
g3
VNCT00045162.xml
p234
sg5
S'19349543'
p235
sg7
S'19349543.xml'
p236
sa(dp237
g3
VNCT00045630.xml
p238
sg5
S'19371909'
p239
sg7
S'19371909.xml'
p240
sa(dp241
g3
VNCT00046228.xml
p242
sg5
S'15077099'
p243
sg7
S'15077099.xml'
p244
sa(dp245
g3
VNCT00046839.xml
p246
sg5
S'21550559'
p247
sg7
S'21550559.xml'
p248
sa(dp249
g3
VNCT00047385.xml
p250
sg5
S'21714641'
p251
sg7
S'21714641.xml'
p252
sa(dp253
g3
VNCT00047463.xml
p254
sg5
S'18711110'
p255
sg7
S'18711110.xml'
p256
sa(dp257
g3
VNCT00048568.xml
p258
sg5
S'16785475'
p259
sg7
S'16785475.xml'
p260
sa(dp261
g3
VNCT00048997.xml
p262
sg5
S'21135270'
p263
sg7
S'21135270.xml'
p264
sa(dp265
g3
VNCT00050089.xml
p266
sg5
S'21610542'
p267
sg7
S'21610542.xml'
p268
sa(dp269
g3
VNCT00050778.xml
p270
sg5
S'18946064'
p271
sg7
S'18946064.xml'
p272
sa(dp273
g3
VNCT00053703.xml
p274
sg5
S'17667476'
p275
sg7
S'17667476.xml'
p276
sa(dp277
g3
VNCT00054847.xml
p278
sg5
S'22138312'
p279
sg7
S'22138312.xml'
p280
sa(dp281
g3
VNCT00055237.xml
p282
sg5
S'22430271'
p283
sg7
S'22430271.xml'
p284
sa(dp285
g3
VNCT00056563.xml
p286
sg5
S'16216957'
p287
sg7
S'16216957.xml'
p288
sa(dp289
g3
VNCT00056862.xml
p290
sg5
S'20163377'
p291
sg7
S'20163377.xml'
p292
sa(dp293
g3
VNCT00057681.xml
p294
sg5
S'22213771'
p295
sg7
S'22213771.xml'
p296
sa(dp297
g3
VNCT00057785.xml
p298
sg5
S'20441239'
p299
sg7
S'20441239.xml'
p300
sa(dp301
g3
VNCT00061893.xml
p302
sg5
S'23065953'
p303
sg7
S'23065953.xml'
p304
sa(dp305
g3
VNCT00061932.xml
p306
sg5
S'24526575'
p307
sg7
S'24526575.xml'
p308
sa(dp309
g3
VNCT00062738.xml
p310
sg5
S'19092112'
p311
sg7
S'19092112.xml'
p312
sa(dp313
g3
VNCT00065065.xml
p314
sg5
S'18325386'
p315
sg7
S'18325386.xml'
p316
sa(dp317
g3
VNCT00065156.xml
p318
sg5
S'17021321'
p319
sg7
S'17021321.xml'
p320
sa(dp321
g3
VNCT00066170.xml
p322
sg5
S'16895262'
p323
sg7
S'16895262.xml'
p324
sa(dp325
g3
VNCT00066222.xml
p326
sg5
S'22560543'
p327
sg7
S'22560543.xml'
p328
sa(dp329
g3
VNCT00066365.xml
p330
sg5
S'20576718'
p331
sg7
S'20576718.xml'
p332
sa(dp333
g3
VNCT00066963.xml
p334
sg5
S'16434737'
p335
sg7
S'16434737.xml'
p336
sa(dp337
g3
VNCT00068237.xml
p338
sg5
S'22541957'
p339
sg7
S'22541957.xml'
p340
sa(dp341
g3
VNCT00068393.xml
p342
sg5
S'21298497'
p343
sg7
S'21298497.xml'
p344
sa(dp345
g3
VNCT00068822.xml
p346
sg5
S'19657122'
p347
sg7
S'19657122.xml'
p348
sa(dp349
g3
VNCT00069160.xml
p350
sg5
S'21081657'
p351
sg7
S'21081657.xml'
p352
sa(dp353
g3
VNCT00069784.xml
p354
sg5
S'22686416'
p355
sg7
S'22686416.xml'
p356
sa(dp357
g3
VNCT00070109.xml
p358
sg5
S'22088484'
p359
sg7
S'22088484.xml'
p360
sa(dp361
g3
VNCT00071032.xml
p362
sg5
S'22168590'
p363
sg7
S'22168590.xml'
p364
sa(dp365
g3
VNCT00071487.xml
p366
sg5
S'19714604'
p367
sg7
S'19714604.xml'
p368
sa(dp369
g3
VNCT00071799.xml
p370
sg5
S'20026804'
p371
sg7
S'20026804.xml'
p372
sa(dp373
g3
VNCT00073307.xml
p374
sg5
S'20085939'
p375
sg7
S'20085939.xml'
p376
sa(dp377
g3
VNCT00074815.xml
p378
sg5
S'21934055'
p379
sg7
S'21934055.xml'
p380
sa(dp381
g3
VNCT00075088.xml
p382
sg5
S'21256997'
p383
sg7
S'21256997.xml'
p384
sa(dp385
g3
VNCT00076219.xml
p386
sg5
S'18492867'
p387
sg7
S'18492867.xml'
p388
sa(dp389
g3
VNCT00076752.xml
p390
sg5
S'21873334'
p391
sg7
S'21873334.xml'
p392
sa(dp393
g3
VNCT00077207.xml
p394
sg5
S'25854526'
p395
sg7
S'25854526.xml'
p396
sa(dp397
g3
VNCT00078286.xml
p398
sg5
S'20723799'
p399
sg7
S'20723799.xml'
p400
sa(dp401
g3
VNCT00078403.xml
p402
sg5
S'21535051'
p403
sg7
S'21535051.xml'
p404
sa(dp405
g3
VNCT00079001.xml
p406
sg5
S'24590644'
p407
sg7
S'24590644.xml'
p408
sa(dp409
g3
VNCT00079391.xml
p410
sg5
S'17162214'
p411
sg7
S'17162214.xml'
p412
sa(dp413
g3
VNCT00080301.xml
p414
sg5
S'17968020'
p415
sg7
S'17968020.xml'
p416
sa(dp417
g3
VNCT00080483.xml
p418
sg5
S'24423356'
p419
sg7
S'24423356.xml'
p420
sa(dp421
g3
VNCT00081289.xml
p422
sg5
S'21775070'
p423
sg7
S'21775070.xml'
p424
sa(dp425
g3
VNCT00081328.xml
p426
sg5
S'20519658'
p427
sg7
S'20519658.xml'
p428
sa(dp429
g3
VNCT00081458.xml
p430
sg5
S'21317170'
p431
sg7
S'21317170.xml'
p432
sa(dp433
g3
VNCT00081731.xml
p434
sg5
S'24245567'
p435
sg7
S'24245567.xml'
p436
sa(dp437
g3
VNCT00081770.xml
p438
sg5
S'19625712'
p439
sg7
S'19625712.xml'
p440
sa(dp441
g3
VNCT00082355.xml
p442
sg5
S'21664144'
p443
sg7
S'21664144.xml'
p444
sa(dp445
g3
VNCT00082381.xml
p446
sg5
S'16230722'
p447
sg7
S'16230722.xml'
p448
sa(dp449
g3
VNCT00082407.xml
p450
sg5
S'17160407'
p451
sg7
S'17160407.xml'
p452
sa(dp453
g3
VNCT00082758.xml
p454
sg5
S'20935224'
p455
sg7
S'20935224.xml'
p456
sa(dp457
g3
VNCT00084409.xml
p458
sg5
S'21636546'
p459
sg7
S'21636546.xml'
p460
sa(dp461
g3
VNCT00084682.xml
p462
sg5
S'22748449'
p463
sg7
S'22748449.xml'
p464
sa(dp465
g3
VNCT00085423.xml
p466
sg5
S'20124177'
p467
sg7
S'20124177.xml'
p468
sa(dp469
g3
VNCT00085436.xml
p470
sg5
S'19622576'
p471
sg7
S'19622576.xml'
p472
sa(dp473
g3
VNCT00085839.xml
p474
sg5
S'18281658'
p475
sg7
S'18281658.xml'
p476
sa(dp477
g3
VNCT00086411.xml
p478
sg5
S'19339135'
p479
sg7
S'19339135.xml'
p480
sa(dp481
g3
VNCT00086619.xml
p482
sg5
S'21111078'
p483
sg7
S'21111078.xml'
p484
sa(dp485
g3
VNCT00087152.xml
p486
sg5
S'19073506'
p487
sg7
S'19073506.xml'
p488
sa(dp489
g3
VNCT00087438.xml
p490
sg5
S'20233825'
p491
sg7
S'20233825.xml'
p492
sa(dp493
g3
VNCT00088153.xml
p494
sg5
S'21698665'
p495
sg7
S'21698665.xml'
p496
sa(dp497
g3
VNCT00088634.xml
p498
sg5
S'19497249'
p499
sg7
S'19497249.xml'
p500
sa(dp501
g3
VNCT00089583.xml
p502
sg5
S'23811744'
p503
sg7
S'23811744.xml'
p504
sa(dp505
g3
VNCT00089661.xml
p506
sg5
S'18725648'
p507
sg7
S'18725648.xml'
p508
sa(dp509
g3
VNCT00090233.xml
p510
sg5
S'16394299'
p511
sg7
S'16394299.xml'
p512
sa(dp513
g3
VNCT00090545.xml
p514
sg5
S'19154507'
p515
sg7
S'19154507.xml'
p516
sa(dp517
g3
VNCT00090610.xml
p518
sg5
S'22072307'
p519
sg7
S'22072307.xml'
p520
sa(dp521
g3
VNCT00091507.xml
p522
sg5
S'22452807'
p523
sg7
S'22452807.xml'
p524
sa(dp525
g3
VNCT00091572.xml
p526
sg5
S'21600759'
p527
sg7
S'21600759.xml'
p528
sa(dp529
g3
VNCT00091793.xml
p530
sg5
S'18381571'
p531
sg7
S'18381571.xml'
p532
sa(dp533
g3
VNCT00091819.xml
p534
sg5
S'18444791'
p535
sg7
S'18444791.xml'
p536
sa(dp537
g3
VNCT00093041.xml
p538
sg5
S'17602769'
p539
sg7
S'17602769.xml'
p540
sa(dp541
g3
VNCT00093145.xml
p542
sg5
S'20705560'
p543
sg7
S'20705560.xml'
p544
sa(dp545
g3
VNCT00093847.xml
p546
sg5
S'20595412'
p547
sg7
S'20595412.xml'
p548
sa(dp549
g3
VNCT00094172.xml
p550
sg5
S'22459680'
p551
sg7
S'22459680.xml'
p552
sa(dp553
g3
VNCT00094302.xml
p554
sg5
S'23258572'
p555
sg7
S'23258572.xml'
p556
sa(dp557
g3
VNCT00094458.xml
p558
sg5
S'20393175'
p559
sg7
S'20393175.xml'
p560
sa(dp561
g3
VNCT00094575.xml
p562
sg5
S'19773791'
p563
sg7
S'19773791.xml'
p564
sa(dp565
g3
VNCT00094809.xml
p566
sg5
S'20378503'
p567
sg7
S'20378503.xml'
p568
sa(dp569
g3
VNCT00095212.xml
p570
sg5
S'19287303'
p571
sg7
S'19287303.xml'
p572
sa(dp573
g3
VNCT00095238.xml
p574
sg5
S'19001508'
p575
sg7
S'19001508.xml'
p576
sa(dp577
g3
VNCT00095875.xml
p578
sg5
S'23414589'
p579
sg7
S'23414589.xml'
p580
sa(dp581
g3
VNCT00096018.xml
p582
sg5
S'16051743'
p583
sg7
S'16051743.xml'
p584
sa(dp585
g3
VNCT00096226.xml
p586
sg5
S'22543206'
p587
sg7
S'22543206.xml'
p588
sa(dp589
g3
VNCT00097253.xml
p590
sg5
S'18178322'
p591
sg7
S'18178322.xml'
p592
sa(dp593
g3
VNCT00097500.xml
p594
sg5
S'19196887'
p595
sg7
S'19196887.xml'
p596
sa(dp597
g3
VNCT00097591.xml
p598
sg5
S'20723851'
p599
sg7
S'20723851.xml'
p600
sa(dp601
g3
VNCT00097773.xml
p602
sg5
S'21893650'
p603
sg7
S'21893650.xml'
p604
sa(dp605
g3
VNCT00098254.xml
p606
sg5
S'21224376'
p607
sg7
S'21224376.xml'
p608
sa(dp609
g3
VNCT00098774.xml
p610
sg5
S'23569323'
p611
sg7
S'23569323.xml'
p612
sa(dp613
g3
VNCT00099359.xml
p614
sg5
S'21666540'
p615
sg7
S'21666540.xml'
p616
sa(dp617
g3
VNCT00100230.xml
p618
sg5
S'24805262'
p619
sg7
S'24805262.xml'
p620
sa(dp621
g3
VNCT00101192.xml
p622
sg5
S'21329967'
p623
sg7
S'21329967.xml'
p624
sa(dp625
g3
VNCT00101400.xml
p626
sg5
S'19739318'
p627
sg7
S'19739318.xml'
p628
sa(dp629
g3
VNCT00101413.xml
p630
sg5
S'22820084'
p631
sg7
S'22820084.xml'
p632
sa(dp633
g3
VNCT00101868.xml
p634
sg5
S'17059700'
p635
sg7
S'17059700.xml'
p636
sa(dp637
g3
VNCT00102440.xml
p638
sg5
S'16339094'
p639
sg7
S'16339094.xml'
p640
sa(dp641
g3
VNCT00102596.xml
p642
sg5
S'21594724'
p643
sg7
S'21594724.xml'
p644
sa(dp645
g3
VNCT00103194.xml
p646
sg5
S'21784672'
p647
sg7
S'21784672.xml'
p648
sa(dp649
g3
VNCT00103207.xml
p650
sg5
S'21422434'
p651
sg7
S'21422434.xml'
p652
sa(dp653
g3
VNCT00103610.xml
p654
sg5
S'19720922'
p655
sg7
S'19720922.xml'
p656
sa(dp657
g3
VNCT00103662.xml
p658
sg5
S'19363221'
p659
sg7
S'19363221.xml'
p660
sa(dp661
g3
VNCT00104299.xml
p662
sg5
S'20647199'
p663
sg7
S'20647199.xml'
p664
sa(dp665
g3
VNCT00104650.xml
p666
sg5
S'19237632'
p667
sg7
S'19237632.xml'
p668
sa(dp669
g3
VNCT00105027.xml
p670
sg5
S'19752419'
p671
sg7
S'19752419.xml'
p672
sa(dp673
g3
VNCT00105443.xml
p674
sg5
S'18650514'
p675
sg7
S'18650514.xml'
p676
sa(dp677
g3
VNCT00105482.xml
p678
sg5
S'20542391'
p679
sg7
S'20542391.xml'
p680
sa(dp681
g3
VNCT00106080.xml
p682
sg5
S'16334970'
p683
sg7
S'16334970.xml'
p684
sa(dp685
g3
VNCT00106184.xml
p686
sg5
S'23124935'
p687
sg7
S'23124935.xml'
p688
sa(dp689
g3
VNCT00106964.xml
p690
sg5
S'21350366'
p691
sg7
S'21350366.xml'
p692
sa(dp693
g3
VNCT00107120.xml
p694
sg5
S'19465881'
p695
sg7
S'19465881.xml'
p696
sa(dp697
g3
VNCT00107536.xml
p698
sg5
S'19737952'
p699
sg7
S'19737952.xml'
p700
sa(dp701
g3
VNCT00107575.xml
p702
sg5
S'18837602'
p703
sg7
S'18837602.xml'
p704
sa(dp705
g3
VNCT00107978.xml
p706
sg5
S'18444791'
p707
sg7
S'18444791.xml'
p708
sa(dp709
g3
VNCT00107991.xml
p710
sg5
S'19185954'
p711
sg7
S'19185954.xml'
p712
sa(dp713
g3
VNCT00108277.xml
p714
sg5
S'21373936'
p715
sg7
S'21373936.xml'
p716
sa(dp717
g3
VNCT00108355.xml
p718
sg5
S'22095893'
p719
sg7
S'22095893.xml'
p720
sa(dp721
g3
VNCT00108524.xml
p722
sg5
S'23911112'
p723
sg7
S'23911112.xml'
p724
sa(dp725
g3
VNCT00108628.xml
p726
sg5
S'23047646'
p727
sg7
S'23047646.xml'
p728
sa(dp729
g3
VNCT00108953.xml
p730
sg5
S'16908937'
p731
sg7
S'16908937.xml'
p732
sa(dp733
g3
VNCT00109343.xml
p734
sg5
S'22123890'
p735
sg7
S'22123890.xml'
p736
sa(dp737
g3
VNCT00109590.xml
p738
sg5
S'19237646'
p739
sg7
S'19237646.xml'
p740
sa(dp741
g3
VNCT00109928.xml
p742
sg5
S'22833464'
p743
sg7
S'22833464.xml'
p744
sa(dp745
g3
VNCT00110084.xml
p746
sg5
S'19087987'
p747
sg7
S'19087987.xml'
p748
sa(dp749
g3
VNCT00110396.xml
p750
sg5
S'17692727'
p751
sg7
S'17692727.xml'
p752
sa(dp753
g3
VNCT00110890.xml
p754
sg5
S'18178780'
p755
sg7
S'18178780.xml'
p756
sa(dp757
g3
VNCT00110994.xml
p758
sg5
S'18445842'
p759
sg7
S'18445842.xml'
p760
sa(dp761
g3
VNCT00111007.xml
p762
sg5
S'19349552'
p763
sg7
S'19349552.xml'
p764
sa(dp765
g3
VNCT00111657.xml
p766
sg5
S'20660758'
p767
sg7
S'20660758.xml'
p768
sa(dp769
g3
VNCT00112047.xml
p770
sg5
S'16421366'
p771
sg7
S'16421366.xml'
p772
sa(dp773
g3
VNCT00112112.xml
p774
sg5
S'21496468'
p775
sg7
S'21496468.xml'
p776
sa(dp777
g3
VNCT00112489.xml
p778
sg5
S'20421537'
p779
sg7
S'20421537.xml'
p780
sa(dp781
g3
VNCT00113490.xml
p782
sg5
S'19258920'
p783
sg7
S'19258920.xml'
p784
sa(dp785
g3
VNCT00114166.xml
p786
sg5
S'21168198'
p787
sg7
S'21168198.xml'
p788
sa(dp789
g3
VNCT00115765.xml
p790
sg5
S'19114685'
p791
sg7
S'19114685.xml'
p792
sa(dp793
g3
VNCT00115869.xml
p794
sg5
S'11121460'
p795
sg7
S'11121460.xml'
p796
sa(dp797
g3
VNCT00115934.xml
p798
sg5
S'21331516'
p799
sg7
S'21331516.xml'
p800
sa(dp801
g3
VNCT00116428.xml
p802
sg5
S'20103757'
p803
sg7
S'20103757.xml'
p804
sa(dp805
g3
VNCT00116649.xml
p806
sg5
S'20729935'
p807
sg7
S'20729935.xml'
p808
sa(dp809
g3
VNCT00116779.xml
p810
sg5
S'18801505'
p811
sg7
S'18801505.xml'
p812
sa(dp813
g3
VNCT00116857.xml
p814
sg5
S'19843899'
p815
sg7
S'19843899.xml'
p816
sa(dp817
g3
VNCT00117156.xml
p818
sg5
S'19344412'
p819
sg7
S'19344412.xml'
p820
sa(dp821
g3
VNCT00117637.xml
p822
sg5
S'19171708'
p823
sg7
S'19171708.xml'
p824
sa(dp825
g3
VNCT00117962.xml
p826
sg5
S'21747084'
p827
sg7
S'21747084.xml'
p828
sa(dp829
g3
VNCT00118378.xml
p830
sg5
S'20492840'
p831
sg7
S'20492840.xml'
p832
sa(dp833
g3
VNCT00118404.xml
p834
sg5
S'21319902'
p835
sg7
S'21319902.xml'
p836
sa(dp837
g3
VNCT00118534.xml
p838
sg5
S'20870742'
p839
sg7
S'20870742.xml'
p840
sa(dp841
g3
VNCT00118911.xml
p842
sg5
S'20736471'
p843
sg7
S'20736471.xml'
p844
sa(dp845
g3
VNCT00119041.xml
p846
sg5
S'19468006'
p847
sg7
S'19468006.xml'
p848
sa(dp849
g3
VNCT00120250.xml
p850
sg5
S'21367352'
p851
sg7
S'21367352.xml'
p852
sa(dp853
g3
VNCT00120627.xml
p854
sg5
S'24203540'
p855
sg7
S'24203540.xml'
p856
sa(dp857
g3
VNCT00121472.xml
p858
sg5
S'17761592'
p859
sg7
S'17761592.xml'
p860
sa(dp861
g3
VNCT00121485.xml
p862
sg5
S'19920051'
p863
sg7
S'19920051.xml'
p864
sa(dp865
g3
VNCT00122109.xml
p866
sg5
S'18956449'
p867
sg7
S'18956449.xml'
p868
sa(dp869
g3
VNCT00122187.xml
p870
sg5
S'19726776'
p871
sg7
S'19726776.xml'
p872
sa(dp873
g3
VNCT00122369.xml
p874
sg5
S'19244038'
p875
sg7
S'19244038.xml'
p876
sa(dp877
g3
VNCT00122460.xml
p878
sg5
S'18784101'
p879
sg7
S'18784101.xml'
p880
sa(dp881
g3
VNCT00123123.xml
p882
sg5
S'19765321'
p883
sg7
S'19765321.xml'
p884
sa(dp885
g3
VNCT00123409.xml
p886
sg5
S'12748029'
p887
sg7
S'12748029.xml'
p888
sa(dp889
g3
VNCT00123422.xml
p890
sg5
S'24238770'
p891
sg7
S'24238770.xml'
p892
sa(dp893
g3
VNCT00123487.xml
p894
sg5
S'16960978'
p895
sg7
S'16960978.xml'
p896
sa(dp897
g3
VNCT00123682.xml
p898
sg5
S'16295702'
p899
sg7
S'16295702.xml'
p900
sa(dp901
g3
VNCT00124618.xml
p902
sg5
S'20570832'
p903
sg7
S'20570832.xml'
p904
sa(dp905
g3
VNCT00125034.xml
p906
sg5
S'19114683'
p907
sg7
S'19114683.xml'
p908
sa(dp909
g3
VNCT00125242.xml
p910
sg5
S'23695909'
p911
sg7
S'23695909.xml'
p912
sa(dp913
g3
VNCT00125593.xml
p914
sg5
S'21663949'
p915
sg7
S'21663949.xml'
p916
sa(dp917
g3
VNCT00125931.xml
p918
sg5
S'17897484'
p919
sg7
S'17897484.xml'
p920
sa(dp921
g3
VNCT00126113.xml
p922
sg5
S'22812927'
p923
sg7
S'22812927.xml'
p924
sa(dp925
g3
VNCT00126737.xml
p926
sg5
S'18712641'
p927
sg7
S'18712641.xml'
p928
sa(dp929
g3
VNCT00127192.xml
p930
sg5
S'20332588'
p931
sg7
S'20332588.xml'
p932
sa(dp933
g3
VNCT00127530.xml
p934
sg5
S'19249634'
p935
sg7
S'19249634.xml'
p936
sa(dp937
g3
VNCT00127712.xml
p938
sg5
S'19699916'
p939
sg7
S'19699916.xml'
p940
sa(dp941
g3
VNCT00128180.xml
p942
sg5
S'23784924'
p943
sg7
S'23784924.xml'
p944
sa(dp945
g3
VNCT00128193.xml
p946
sg5
S'24874401'
p947
sg7
S'24874401.xml'
p948
sa(dp949
g3
VNCT00129246.xml
p950
sg5
S'17587504'
p951
sg7
S'17587504.xml'
p952
sa(dp953
g3
VNCT00129259.xml
p954
sg5
S'23835333'
p955
sg7
S'23835333.xml'
p956
sa(dp957
g3
VNCT00129441.xml
p958
sg5
S'18923067'
p959
sg7
S'18923067.xml'
p960
sa(dp961
g3
VNCT00129480.xml
p962
sg5
S'16937344'
p963
sg7
S'16937344.xml'
p964
sa(dp965
g3
VNCT00129766.xml
p966
sg5
S'20008423'
p967
sg7
S'20008423.xml'
p968
sa(dp969
g3
VNCT00130247.xml
p970
sg5
S'17928422'
p971
sg7
S'17928422.xml'
p972
sa(dp973
g3
VNCT00130286.xml
p974
sg5
S'23593417'
p975
sg7
S'23593417.xml'
p976
sa(dp977
g3
VNCT00130689.xml
p978
sg5
S'21217058'
p979
sg7
S'21217058.xml'
p980
sa(dp981
g3
VNCT00130832.xml
p982
sg5
S'18756184'
p983
sg7
S'18756184.xml'
p984
sa(dp985
g3
VNCT00131248.xml
p986
sg5
S'19540518'
p987
sg7
S'19540518.xml'
p988
sa(dp989
g3
VNCT00132314.xml
p990
sg5
S'21270143'
p991
sg7
S'21270143.xml'
p992
sa(dp993
g3
VNCT00132691.xml
p994
sg5
S'21840602'
p995
sg7
S'21840602.xml'
p996
sa(dp997
g3
VNCT00133575.xml
p998
sg5
S'20350190'
p999
sg7
S'20350190.xml'
p1000
sa(dp1001
g3
VNCT00133978.xml
p1002
sg5
S'23594003'
p1003
sg7
S'23594003.xml'
p1004
sa(dp1005
g3
VNCT00134563.xml
p1006
sg5
S'21991951'
p1007
sg7
S'21991951.xml'
p1008
sa(dp1009
g3
VNCT00134784.xml
p1010
sg5
S'15590952'
p1011
sg7
S'15590952.xml'
p1012
sa(dp1013
g3
VNCT00135798.xml
p1014
sg5
S'22821361'
p1015
sg7
S'22821361.xml'
p1016
sa(dp1017
g3
VNCT00136760.xml
p1018
sg5
S'21475970'
p1019
sg7
S'21475970.xml'
p1020
sa(dp1021
g3
VNCT00137267.xml
p1022
sg5
S'16184072'
p1023
sg7
S'16184072.xml'
p1024
sa(dp1025
g3
VNCT00137280.xml
p1026
sg5
S'20658320'
p1027
sg7
S'20658320.xml'
p1028
sa(dp1029
g3
VNCT00137631.xml
p1030
sg5
S'19267264'
p1031
sg7
S'19267264.xml'
p1032
sa(dp1033
g3
VNCT00138658.xml
p1034
sg5
S'22198426'
p1035
sg7
S'22198426.xml'
p1036
sa(dp1037
g3
VNCT00139477.xml
p1038
sg5
S'20061420'
p1039
sg7
S'20061420.xml'
p1040
sa(dp1041
g3
VNCT00139997.xml
p1042
sg5
S'17683643'
p1043
sg7
S'17683643.xml'
p1044
sa(dp1045
g3
VNCT00140556.xml
p1046
sg5
S'20632579'
p1047
sg7
S'20632579.xml'
p1048
sa(dp1049
g3
VNCT00141037.xml
p1050
sg5
S'22694755'
p1051
sg7
S'22694755.xml'
p1052
sa(dp1053
g3
VNCT00141726.xml
p1054
sg5
S'22155140'
p1055
sg7
S'22155140.xml'
p1056
sa(dp1057
g3
VNCT00141778.xml
p1058
sg5
S'20599398'
p1059
sg7
S'20599398.xml'
p1060
sa(dp1061
g3
VNCT00142116.xml
p1062
sg5
S'18713945'
p1063
sg7
S'18713945.xml'
p1064
sa(dp1065
g3
VNCT00143598.xml
p1066
sg5
S'24315521'
p1067
sg7
S'24315521.xml'
p1068
sa(dp1069
g3
VNCT00144027.xml
p1070
sg5
S'24369177'
p1071
sg7
S'24369177.xml'
p1072
sa(dp1073
g3
VNCT00145249.xml
p1074
sg5
S'19441980'
p1075
sg7
S'19441980.xml'
p1076
sa(dp1077
g3
VNCT00145496.xml
p1078
sg5
S'22198451'
p1079
sg7
S'22198451.xml'
p1080
sa(dp1081
g3
VNCT00145509.xml
p1082
sg5
S'22198448'
p1083
sg7
S'22198448.xml'
p1084
sa(dp1085
g3
VNCT00145795.xml
p1086
sg5
S'21054216'
p1087
sg7
S'21054216.xml'
p1088
sa(dp1089
g3
VNCT00147316.xml
p1090
sg5
S'16763187'
p1091
sg7
S'16763187.xml'
p1092
sa(dp1093
g3
VNCT00148759.xml
p1094
sg5
S'17615254'
p1095
sg7
S'17615254.xml'
p1096
sa(dp1097
g3
VNCT00148798.xml
p1098
sg5
S'19410716'
p1099
sg7
S'19410716.xml'
p1100
sa(dp1101
g3
VNCT00148954.xml
p1102
sg5
S'16836672'
p1103
sg7
S'16836672.xml'
p1104
sa(dp1105
g3
VNCT00149214.xml
p1106
sg5
S'20732932'
p1107
sg7
S'20732932.xml'
p1108
sa(dp1109
g3
VNCT00149227.xml
p1110
sg5
S'19723695'
p1111
sg7
S'19723695.xml'
p1112
sa(dp1113
g3
VNCT00149643.xml
p1114
sg5
S'20576364'
p1115
sg7
S'20576364.xml'
p1116
sa(dp1117
g3
VNCT00149747.xml
p1118
sg5
S'18840807'
p1119
sg7
S'18840807.xml'
p1120
sa(dp1121
g3
VNCT00149825.xml
p1122
sg5
S'18457236'
p1123
sg7
S'18457236.xml'
p1124
sa(dp1125
g3
VNCT00150592.xml
p1126
sg5
S'21476931'
p1127
sg7
S'21476931.xml'
p1128
sa(dp1129
g3
VNCT00150618.xml
p1130
sg5
S'19106767'
p1131
sg7
S'19106767.xml'
p1132
sa(dp1133
g3
VNCT00150969.xml
p1134
sg5
S'18922041'
p1135
sg7
S'18922041.xml'
p1136
sa(dp1137
g3
VNCT00151996.xml
p1138
sg5
S'19877974'
p1139
sg7
S'19877974.xml'
p1140
sa(dp1141
g3
VNCT00152009.xml
p1142
sg5
S'18166547'
p1143
sg7
S'18166547.xml'
p1144
sa(dp1145
g3
VNCT00152516.xml
p1146
sg5
S'21095488'
p1147
sg7
S'21095488.xml'
p1148
sa(dp1149
g3
VNCT00153985.xml
p1150
sg5
S'18550258'
p1151
sg7
S'18550258.xml'
p1152
sa(dp1153
g3
VNCT00154102.xml
p1154
sg5
S'19339720'
p1155
sg7
S'19339720.xml'
p1156
sa(dp1157
g3
VNCT00154466.xml
p1158
sg5
S'19304668'
p1159
sg7
S'19304668.xml'
p1160
sa(dp1161
g3
VNCT00157157.xml
p1162
sg5
S'19216617'
p1163
sg7
S'19216617.xml'
p1164
sa(dp1165
g3
VNCT00157820.xml
p1166
sg5
S'18390985'
p1167
sg7
S'18390985.xml'
p1168
sa(dp1169
g3
VNCT00158197.xml
p1170
sg5
S'23708468'
p1171
sg7
S'23708468.xml'
p1172
sa(dp1173
g3
VNCT00158223.xml
p1174
sg5
S'21346734'
p1175
sg7
S'21346734.xml'
p1176
sa(dp1177
g3
VNCT00159783.xml
p1178
sg5
S'20537396'
p1179
sg7
S'20537396.xml'
p1180
sa(dp1181
g3
VNCT00159965.xml
p1182
sg5
S'18070841'
p1183
sg7
S'18070841.xml'
p1184
sa(dp1185
g3
VNCT00160706.xml
p1186
sg5
S'20363366'
p1187
sg7
S'20363366.xml'
p1188
sa(dp1189
g3
VNCT00161213.xml
p1190
sg5
S'22888387'
p1191
sg7
S'22888387.xml'
p1192
sa(dp1193
g3
VNCT00161382.xml
p1194
sg5
S'20113923'
p1195
sg7
S'20113923.xml'
p1196
sa(dp1197
g3
VNCT00161473.xml
p1198
sg5
S'19700947'
p1199
sg7
S'19700947.xml'
p1200
sa(dp1201
g3
VNCT00166036.xml
p1202
sg5
S'22264573'
p1203
sg7
S'22264573.xml'
p1204
sa(dp1205
g3
VNCT00166296.xml
p1206
sg5
S'21034680'
p1207
sg7
S'21034680.xml'
p1208
sa(dp1209
g3
VNCT00166517.xml
p1210
sg5
S'18174862'
p1211
sg7
S'18174862.xml'
p1212
sa(dp1213
g3
VNCT00167544.xml
p1214
sg5
S'23140612'
p1215
sg7
S'23140612.xml'
p1216
sa(dp1217
g3
VNCT00168038.xml
p1218
sg5
S'19635187'
p1219
sg7
S'19635187.xml'
p1220
sa(dp1221
g3
VNCT00168103.xml
p1222
sg5
S'19767078'
p1223
sg7
S'19767078.xml'
p1224
sa(dp1225
g3
VNCT00172185.xml
p1226
sg5
S'23333663'
p1227
sg7
S'23333663.xml'
p1228
sa(dp1229
g3
VNCT00174265.xml
p1230
sg5
S'22198451'
p1231
sg7
S'22198451.xml'
p1232
sa(dp1233
g3
VNCT00174785.xml
p1234
sg5
S'19213680'
p1235
sg7
S'19213680.xml'
p1236
sa(dp1237
g3
VNCT00174915.xml
p1238
sg5
S'18975369'
p1239
sg7
S'18975369.xml'
p1240
sa(dp1241
g3
VNCT00174941.xml
p1242
sg5
S'16911575'
p1243
sg7
S'16911575.xml'
p1244
sa(dp1245
g3
VNCT00174967.xml
p1246
sg5
S'15751090'
p1247
sg7
S'15751090.xml'
p1248
sa(dp1249
g3
VNCT00175019.xml
p1250
sg5
S'19286847'
p1251
sg7
S'19286847.xml'
p1252
sa(dp1253
g3
VNCT00175877.xml
p1254
sg5
S'22596211'
p1255
sg7
S'22596211.xml'
p1256
sa(dp1257
g3
VNCT00176436.xml
p1258
sg5
S'21459735'
p1259
sg7
S'21459735.xml'
p1260
sa(dp1261
g3
VNCT00177294.xml
p1262
sg5
S'20957693'
p1263
sg7
S'20957693.xml'
p1264
sa(dp1265
g3
VNCT00178256.xml
p1266
sg5
S'12631594'
p1267
sg7
S'12631594.xml'
p1268
sa(dp1269
g3
VNCT00179660.xml
p1270
sg5
S'18606983'
p1271
sg7
S'18606983.xml'
p1272
sa(dp1273
g3
VNCT00179673.xml
p1274
sg5
S'19805688'
p1275
sg7
S'19805688.xml'
p1276
sa(dp1277
g3
VNCT00179959.xml
p1278
sg5
S'19403473'
p1279
sg7
S'19403473.xml'
p1280
sa(dp1281
g3
VNCT00180479.xml
p1282
sg5
S'18430909'
p1283
sg7
S'18430909.xml'
p1284
sa(dp1285
g3
VNCT00182078.xml
p1286
sg5
S'22040192'
p1287
sg7
S'22040192.xml'
p1288
sa(dp1289
g3
VNCT00182091.xml
p1290
sg5
S'20061426'
p1291
sg7
S'20061426.xml'
p1292
sa(dp1293
g3
VNCT00183196.xml
p1294
sg5
S'21454917'
p1295
sg7
S'21454917.xml'
p1296
sa(dp1297
g3
VNCT00183469.xml
p1298
sg5
S'22708645'
p1299
sg7
S'22708645.xml'
p1300
sa(dp1301
g3
VNCT00185211.xml
p1302
sg5
S'19748319'
p1303
sg7
S'19748319.xml'
p1304
sa(dp1305
g3
VNCT00185380.xml
p1306
sg5
S'22222193'
p1307
sg7
S'22222193.xml'
p1308
sa(dp1309
g3
VNCT00185458.xml
p1310
sg5
S'20888118'
p1311
sg7
S'20888118.xml'
p1312
sa(dp1313
g3
VNCT00185965.xml
p1314
sg5
S'22045986'
p1315
sg7
S'22045986.xml'
p1316
sa(dp1317
g3
VNCT00187096.xml
p1318
sg5
S'20085940'
p1319
sg7
S'20085940.xml'
p1320
sa(dp1321
g3
VNCT00187486.xml
p1322
sg5
S'19075262'
p1323
sg7
S'19075262.xml'
p1324
sa(dp1325
g3
VNCT00187655.xml
p1326
sg5
S'16291576'
p1327
sg7
S'16291576.xml'
p1328
sa(dp1329
g3
VNCT00187681.xml
p1330
sg5
S'17476361'
p1331
sg7
S'17476361.xml'
p1332
sa(dp1333
g3
VNCT00187720.xml
p1334
sg5
S'19483665'
p1335
sg7
S'19483665.xml'
p1336
sa(dp1337
g3
VNCT00189098.xml
p1338
sg5
S'17473089'
p1339
sg7
S'17473089.xml'
p1340
sa(dp1341
g3
VNCT00189306.xml
p1342
sg5
S'17034468'
p1343
sg7
S'17034468.xml'
p1344
sa(dp1345
g3
VNCT00189540.xml
p1346
sg5
S'21146749'
p1347
sg7
S'21146749.xml'
p1348
sa(dp1349
g3
VNCT00190775.xml
p1350
sg5
S'21406998'
p1351
sg7
S'21406998.xml'
p1352
sa(dp1353
g3
VNCT00191113.xml
p1354
sg5
S'16757526'
p1355
sg7
S'16757526.xml'
p1356
sa(dp1357
g3
VNCT00191282.xml
p1358
sg5
S'19246588'
p1359
sg7
S'19246588.xml'
p1360
sa(dp1361
g3
VNCT00191984.xml
p1362
sg5
S'20396391'
p1363
sg7
S'20396391.xml'
p1364
sa(dp1365
g3
VNCT00192075.xml
p1366
sg5
S'21120580'
p1367
sg7
S'21120580.xml'
p1368
sa(dp1369
g3
VNCT00193037.xml
p1370
sg5
S'19933081'
p1371
sg7
S'19933081.xml'
p1372
sa(dp1373
g3
VNCT00193050.xml
p1374
sg5
S'20497920'
p1375
sg7
S'20497920.xml'
p1376
sa(dp1377
g3
VNCT00193063.xml
p1378
sg5
S'19661042'
p1379
sg7
S'19661042.xml'
p1380
sa(dp1381
g3
VNCT00193128.xml
p1382
sg5
S'20351330'
p1383
sg7
S'20351330.xml'
p1384
sa(dp1385
g3
VNCT00193180.xml
p1386
sg5
S'19933079'
p1387
sg7
S'19933079.xml'
p1388
sa(dp1389
g3
VNCT00193258.xml
p1390
sg5
S'18272024'
p1391
sg7
S'18272024.xml'
p1392
sa(dp1393
g3
VNCT00193414.xml
p1394
sg5
S'20421819'
p1395
sg7
S'20421819.xml'
p1396
sa(dp1397
g3
VNCT00193453.xml
p1398
sg5
S'20439197'
p1399
sg7
S'20439197.xml'
p1400
sa(dp1401
g3
VNCT00193479.xml
p1402
sg5
S'20223728'
p1403
sg7
S'20223728.xml'
p1404
sa(dp1405
g3
VNCT00193596.xml
p1406
sg5
S'20164695'
p1407
sg7
S'20164695.xml'
p1408
sa(dp1409
g3
VNCT00193609.xml
p1410
sg5
S'20209610'
p1411
sg7
S'20209610.xml'
p1412
sa(dp1413
g3
VNCT00194025.xml
p1414
sg5
S'17582828'
p1415
sg7
S'17582828.xml'
p1416
sa(dp1417
g3
VNCT00194077.xml
p1418
sg5
S'22152402'
p1419
sg7
S'22152402.xml'
p1420
sa(dp1421
g3
VNCT00194532.xml
p1422
sg5
S'22318279'
p1423
sg7
S'22318279.xml'
p1424
sa(dp1425
g3
VNCT00194675.xml
p1426
sg5
S'21575967'
p1427
sg7
S'21575967.xml'
p1428
sa(dp1429
g3
VNCT00196105.xml
p1430
sg5
S'19482279'
p1431
sg7
S'19482279.xml'
p1432
sa(dp1433
g3
VNCT00196326.xml
p1434
sg5
S'20004272'
p1435
sg7
S'20004272.xml'
p1436
sa(dp1437
g3
VNCT00198822.xml
p1438
sg5
S'21586714'
p1439
sg7
S'21586714.xml'
p1440
sa(dp1441
g3
VNCT00199914.xml
p1442
sg5
S'18178111'
p1443
sg7
S'18178111.xml'
p1444
sa(dp1445
g3
VNCT00200057.xml
p1446
sg5
S'20160636'
p1447
sg7
S'20160636.xml'
p1448
sa(dp1449
g3
VNCT00200343.xml
p1450
sg5
S'17573387'
p1451
sg7
S'17573387.xml'
p1452
sa(dp1453
g3
VNCT00200356.xml
p1454
sg5
S'19321945'
p1455
sg7
S'19321945.xml'
p1456
sa(dp1457
g3
VNCT00200967.xml
p1458
sg5
S'19932356'
p1459
sg7
S'19932356.xml'
p1460
sa(dp1461
g3
VNCT00201006.xml
p1462
sg5
S'19029500'
p1463
sg7
S'19029500.xml'
p1464
sa(dp1465
g3
VNCT00201123.xml
p1466
sg5
S'19753300'
p1467
sg7
S'19753300.xml'
p1468
sa(dp1469
g3
VNCT00201201.xml
p1470
sg5
S'21654869'
p1471
sg7
S'21654869.xml'
p1472
sa(dp1473
g3
VNCT00201240.xml
p1474
sg5
S'21875505'
p1475
sg7
S'21875505.xml'
p1476
sa(dp1477
g3
VNCT00201825.xml
p1478
sg5
S'23079156'
p1479
sg7
S'23079156.xml'
p1480
sa(dp1481
g3
VNCT00203203.xml
p1482
sg5
S'21641354'
p1483
sg7
S'21641354.xml'
p1484
sa(dp1485
g3
VNCT00204373.xml
p1486
sg5
S'15645403'
p1487
sg7
S'15645403.xml'
p1488
sa(dp1489
g3
VNCT00204932.xml
p1490
sg5
S'16924272'
p1491
sg7
S'16924272.xml'
p1492
sa(dp1493
g3
VNCT00209092.xml
p1494
sg5
S'23332349'
p1495
sg7
S'23332349.xml'
p1496
sa(dp1497
g3
VNCT00210470.xml
p1498
sg5
S'20539208'
p1499
sg7
S'20539208.xml'
p1500
sa(dp1501
g3
VNCT00211172.xml
p1502
sg5
S'18332291'
p1503
sg7
S'18332291.xml'
p1504
sa(dp1505
g3
VNCT00211692.xml
p1506
sg5
S'21221804'
p1507
sg7
S'21221804.xml'
p1508
sa(dp1509
g3
VNCT00211887.xml
p1510
sg5
S'23424159'
p1511
sg7
S'23424159.xml'
p1512
sa(dp1513
g3
VNCT00212355.xml
p1514
sg5
S'21078496'
p1515
sg7
S'21078496.xml'
p1516
sa(dp1517
g3
VNCT00213135.xml
p1518
sg5
S'20089960'
p1519
sg7
S'20089960.xml'
p1520
sa(dp1521
g3
VNCT00214383.xml
p1522
sg5
S'19515862'
p1523
sg7
S'19515862.xml'
p1524
sa(dp1525
g3
VNCT00216320.xml
p1526
sg5
S'23558080'
p1527
sg7
S'23558080.xml'
p1528
sa(dp1529
g3
VNCT00216736.xml
p1530
sg5
S'18156535'
p1531
sg7
S'18156535.xml'
p1532
sa(dp1533
g3
VNCT00218296.xml
p1534
sg5
S'22218402'
p1535
sg7
S'22218402.xml'
p1536
sa(dp1537
g3
VNCT00219349.xml
p1538
sg5
S'20531128'
p1539
sg7
S'20531128.xml'
p1540
sa(dp1541
g3
VNCT00220701.xml
p1542
sg5
S'21811192'
p1543
sg7
S'21811192.xml'
p1544
sa(dp1545
g3
VNCT00220779.xml
p1546
sg5
S'18645164'
p1547
sg7
S'18645164.xml'
p1548
sa(dp1549
g3
VNCT00223652.xml
p1550
sg5
S'21369344'
p1551
sg7
S'21369344.xml'
p1552
sa(dp1553
g3
VNCT00223704.xml
p1554
sg5
S'23361105'
p1555
sg7
S'23361105.xml'
p1556
sa(dp1557
g3
VNCT00223808.xml
p1558
sg5
S'21674393'
p1559
sg7
S'21674393.xml'
p1560
sa(dp1561
g3
VNCT00223821.xml
p1562
sg5
S'20639023'
p1563
sg7
S'20639023.xml'
p1564
sa(dp1565
g3
VNCT00224003.xml
p1566
sg5
S'16520948'
p1567
sg7
S'16520948.xml'
p1568
sa(dp1569
g3
VNCT00224016.xml
p1570
sg5
S'19683731'
p1571
sg7
S'19683731.xml'
p1572
sa(dp1573
g3
VNCT00224029.xml
p1574
sg5
S'19628264'
p1575
sg7
S'19628264.xml'
p1576
sa(dp1577
g3
VNCT00224055.xml
p1578
sg5
S'17035697'
p1579
sg7
S'17035697.xml'
p1580
sa(dp1581
g3
VNCT00224107.xml
p1582
sg5
S'19371887'
p1583
sg7
S'19371887.xml'
p1584
sa(dp1585
g3
VNCT00224133.xml
p1586
sg5
S'19815265'
p1587
sg7
S'19815265.xml'
p1588
sa(dp1589
g3
VNCT00224874.xml
p1590
sg5
S'19443659'
p1591
sg7
S'19443659.xml'
p1592
sa(dp1593
g3
VNCT00225017.xml
p1594
sg5
S'19952712'
p1595
sg7
S'19952712.xml'
p1596
sa(dp1597
g3
VNCT00225147.xml
p1598
sg5
S'20920772'
p1599
sg7
S'20920772.xml'
p1600
sa(dp1601
g3
VNCT00225212.xml
p1602
sg5
S'12907446'
p1603
sg7
S'12907446.xml'
p1604
sa(dp1605
g3
VNCT00225277.xml
p1606
sg5
S'18378631'
p1607
sg7
S'18378631.xml'
p1608
sa(dp1609
g3
VNCT00227903.xml
p1610
sg5
S'22795046'
p1611
sg7
S'22795046.xml'
p1612
sa(dp1613
g3
VNCT00228943.xml
p1614
sg5
S'19265726'
p1615
sg7
S'19265726.xml'
p1616
sa(dp1617
g3
VNCT00230022.xml
p1618
sg5
S'15925264'
p1619
sg7
S'15925264.xml'
p1620
sa(dp1621
g3
VNCT00230048.xml
p1622
sg5
S'15925264'
p1623
sg7
S'15925264.xml'
p1624
sa(dp1625
g3
VNCT00231114.xml
p1626
sg5
S'23998657'
p1627
sg7
S'23998657.xml'
p1628
sa(dp1629
g3
VNCT00232583.xml
p1630
sg5
S'17362692'
p1631
sg7
S'17362692.xml'
p1632
sa(dp1633
g3
VNCT00234065.xml
p1634
sg5
S'20833591'
p1635
sg7
S'20833591.xml'
p1636
sa(dp1637
g3
VNCT00234286.xml
p1638
sg5
S'22765968'
p1639
sg7
S'22765968.xml'
p1640
sa(dp1641
g3
VNCT00235716.xml
p1642
sg5
S'24381967'
p1643
sg7
S'24381967.xml'
p1644
sa(dp1645
g3
VNCT00237458.xml
p1646
sg5
S'14625037'
p1647
sg7
S'14625037.xml'
p1648
sa(dp1649
g3
VNCT00237692.xml
p1650
sg5
S'22926634'
p1651
sg7
S'22926634.xml'
p1652
sa(dp1653
g3
VNCT00237770.xml
p1654
sg5
S'17385265'
p1655
sg7
S'17385265.xml'
p1656
sa(dp1657
g3
VNCT00237796.xml
p1658
sg5
S'23395192'
p1659
sg7
S'23395192.xml'
p1660
sa(dp1661
g3
VNCT00239837.xml
p1662
sg5
S'22337616'
p1663
sg7
S'22337616.xml'
p1664
sa(dp1665
g3
VNCT00240994.xml
p1666
sg5
S'22052056'
p1667
sg7
S'22052056.xml'
p1668
sa(dp1669
g3
VNCT00243269.xml
p1670
sg5
S'20579837'
p1671
sg7
S'20579837.xml'
p1672
sa(dp1673
g3
VNCT00243932.xml
p1674
sg5
S'19743457'
p1675
sg7
S'19743457.xml'
p1676
sa(dp1677
g3
VNCT00244374.xml
p1678
sg5
S'17980513'
p1679
sg7
S'17980513.xml'
p1680
sa(dp1681
g3
VNCT00245011.xml
p1682
sg5
S'22251554'
p1683
sg7
S'22251554.xml'
p1684
sa(dp1685
g3
VNCT00246324.xml
p1686
sg5
S'18071030'
p1687
sg7
S'18071030.xml'
p1688
sa(dp1689
g3
VNCT00246519.xml
p1690
sg5
S'19249413'
p1691
sg7
S'19249413.xml'
p1692
sa(dp1693
g3
VNCT00247377.xml
p1694
sg5
S'19730234'
p1695
sg7
S'19730234.xml'
p1696
sa(dp1697
g3
VNCT00247416.xml
p1698
sg5
S'23475103'
p1699
sg7
S'23475103.xml'
p1700
sa(dp1701
g3
VNCT00247611.xml
p1702
sg5
S'21452051'
p1703
sg7
S'21452051.xml'
p1704
sa(dp1705
g3
VNCT00248807.xml
p1706
sg5
S'18850311'
p1707
sg7
S'18850311.xml'
p1708
sa(dp1709
g3
VNCT00249288.xml
p1710
sg5
S'21334854'
p1711
sg7
S'21334854.xml'
p1712
sa(dp1713
g3
VNCT00249613.xml
p1714
sg5
S'21315540'
p1715
sg7
S'21315540.xml'
p1716
sa(dp1717
g3
VNCT00249821.xml
p1718
sg5
S'22508151'
p1719
sg7
S'22508151.xml'
p1720
sa(dp1721
g3
VNCT00250588.xml
p1722
sg5
S'20061311'
p1723
sg7
S'20061311.xml'
p1724
sa(dp1725
g3
VNCT00251303.xml
p1726
sg5
S'24356715'
p1727
sg7
S'24356715.xml'
p1728
sa(dp1729
g3
VNCT00251641.xml
p1730
sg5
S'21910713'
p1731
sg7
S'21910713.xml'
p1732
sa(dp1733
g3
VNCT00251693.xml
p1734
sg5
S'19183157'
p1735
sg7
S'19183157.xml'
p1736
sa(dp1737
g3
VNCT00251719.xml
p1738
sg5
S'19183157'
p1739
sg7
S'19183157.xml'
p1740
sa(dp1741
g3
VNCT00251745.xml
p1742
sg5
S'19735233'
p1743
sg7
S'19735233.xml'
p1744
sa(dp1745
g3
VNCT00251862.xml
p1746
sg5
S'20484090'
p1747
sg7
S'20484090.xml'
p1748
sa(dp1749
g3
VNCT00252512.xml
p1750
sg5
S'23453480'
p1751
sg7
S'23453480.xml'
p1752
sa(dp1753
g3
VNCT00252629.xml
p1754
sg5
S'20717848'
p1755
sg7
S'20717848.xml'
p1756
sa(dp1757
g3
VNCT00253370.xml
p1758
sg5
S'20458043'
p1759
sg7
S'20458043.xml'
p1760
sa(dp1761
g3
VNCT00254462.xml
p1762
sg5
S'21422081'
p1763
sg7
S'21422081.xml'
p1764
sa(dp1765
g3
VNCT00255151.xml
p1766
sg5
S'19681809'
p1767
sg7
S'19681809.xml'
p1768
sa(dp1769
g3
VNCT00255164.xml
p1770
sg5
S'19681809'
p1771
sg7
S'19681809.xml'
p1772
sa(dp1773
g3
VNCT00255190.xml
p1774
sg5
S'21129076'
p1775
sg7
S'21129076.xml'
p1776
sa(dp1777
g3
VNCT00256724.xml
p1778
sg5
S'20634018'
p1779
sg7
S'20634018.xml'
p1780
sa(dp1781
g3
VNCT00257660.xml
p1782
sg5
S'20359934'
p1783
sg7
S'20359934.xml'
p1784
sa(dp1785
g3
VNCT00258154.xml
p1786
sg5
S'19209092'
p1787
sg7
S'19209092.xml'
p1788
sa(dp1789
g3
VNCT00258674.xml
p1790
sg5
S'16280398'
p1791
sg7
S'16280398.xml'
p1792
sa(dp1793
g3
VNCT00259610.xml
p1794
sg5
S'22508468'
p1795
sg7
S'22508468.xml'
p1796
sa(dp1797
g3
VNCT00259740.xml
p1798
sg5
S'19714603'
p1799
sg7
S'19714603.xml'
p1800
sa(dp1801
g3
VNCT00259857.xml
p1802
sg5
S'12795371'
p1803
sg7
S'12795371.xml'
p1804
sa(dp1805
g3
VNCT00260533.xml
p1806
sg5
S'19910721'
p1807
sg7
S'19910721.xml'
p1808
sa(dp1809
g3
VNCT00261495.xml
p1810
sg5
S'20384968'
p1811
sg7
S'20384968.xml'
p1812
sa(dp1813
g3
VNCT00262002.xml
p1814
sg5
S'18182599'
p1815
sg7
S'18182599.xml'
p1816
sa(dp1817
g3
VNCT00262301.xml
p1818
sg5
S'20920772'
p1819
sg7
S'20920772.xml'
p1820
sa(dp1821
g3
VNCT00262730.xml
p1822
sg5
S'20615924'
p1823
sg7
S'20615924.xml'
p1824
sa(dp1825
g3
VNCT00262743.xml
p1826
sg5
S'19470922'
p1827
sg7
S'19470922.xml'
p1828
sa(dp1829
g3
VNCT00263887.xml
p1830
sg5
S'19251783'
p1831
sg7
S'19251783.xml'
p1832
sa(dp1833
g3
VNCT00264147.xml
p1834
sg5
S'21905970'
p1835
sg7
S'21905970.xml'
p1836
sa(dp1837
g3
VNCT00264381.xml
p1838
sg5
S'22360152'
p1839
sg7
S'22360152.xml'
p1840
sa(dp1841
g3
VNCT00264576.xml
p1842
sg5
S'19673652'
p1843
sg7
S'19673652.xml'
p1844
sa(dp1845
g3
VNCT00264810.xml
p1846
sg5
S'21917777'
p1847
sg7
S'21917777.xml'
p1848
sa(dp1849
g3
VNCT00265343.xml
p1850
sg5
S'22198451'
p1851
sg7
S'22198451.xml'
p1852
sa(dp1853
g3
VNCT00265395.xml
p1854
sg5
S'20683847'
p1855
sg7
S'20683847.xml'
p1856
sa(dp1857
g3
VNCT00265512.xml
p1858
sg5
S'22651986'
p1859
sg7
S'22651986.xml'
p1860
sa(dp1861
g3
VNCT00266032.xml
p1862
sg5
S'22454004'
p1863
sg7
S'22454004.xml'
p1864
sa(dp1865
g3
VNCT00266279.xml
p1866
sg5
S'20087165'
p1867
sg7
S'20087165.xml'
p1868
sa(dp1869
g3
VNCT00266409.xml
p1870
sg5
S'20877555'
p1871
sg7
S'20877555.xml'
p1872
sa(dp1873
g3
VNCT00266864.xml
p1874
sg5
S'21717386'
p1875
sg7
S'21717386.xml'
p1876
sa(dp1877
g3
VNCT00267046.xml
p1878
sg5
S'20855800'
p1879
sg7
S'20855800.xml'
p1880
sa(dp1881
g3
VNCT00267111.xml
p1882
sg5
S'18343253'
p1883
sg7
S'18343253.xml'
p1884
sa(dp1885
g3
VNCT00267189.xml
p1886
sg5
S'19790150'
p1887
sg7
S'19790150.xml'
p1888
sa(dp1889
g3
VNCT00267696.xml
p1890
sg5
S'18829088'
p1891
sg7
S'18829088.xml'
p1892
sa(dp1893
g3
VNCT00268762.xml
p1894
sg5
S'16908730'
p1895
sg7
S'16908730.xml'
p1896
sa(dp1897
g3
VNCT00270231.xml
p1898
sg5
S'16960700'
p1899
sg7
S'16960700.xml'
p1900
sa(dp1901
g3
VNCT00270634.xml
p1902
sg5
S'21943027'
p1903
sg7
S'21943027.xml'
p1904
sa(dp1905
g3
VNCT00270842.xml
p1906
sg5
S'24355993'
p1907
sg7
S'24355993.xml'
p1908
sa(dp1909
g3
VNCT00271154.xml
p1910
sg5
S'19038680'
p1911
sg7
S'19038680.xml'
p1912
sa(dp1913
g3
VNCT00271609.xml
p1914
sg5
S'21865400'
p1915
sg7
S'21865400.xml'
p1916
sa(dp1917
g3
VNCT00271739.xml
p1918
sg5
S'16221935'
p1919
sg7
S'16221935.xml'
p1920
sa(dp1921
g3
VNCT00274456.xml
p1922
sg5
S'19470941'
p1923
sg7
S'19470941.xml'
p1924
sa(dp1925
g3
VNCT00274625.xml
p1926
sg5
S'25239343'
p1927
sg7
S'25239343.xml'
p1928
sa(dp1929
g3
VNCT00275392.xml
p1930
sg5
S'20588090'
p1931
sg7
S'20588090.xml'
p1932
sa(dp1933
g3
VNCT00276406.xml
p1934
sg5
S'22677718'
p1935
sg7
S'22677718.xml'
p1936
sa(dp1937
g3
VNCT00279201.xml
p1938
sg5
S'19276235'
p1939
sg7
S'19276235.xml'
p1940
sa(dp1941
g3
VNCT00281320.xml
p1942
sg5
S'21755540'
p1943
sg7
S'21755540.xml'
p1944
sa(dp1945
g3
VNCT00282113.xml
p1946
sg5
S'19179885'
p1947
sg7
S'19179885.xml'
p1948
sa(dp1949
g3
VNCT00282282.xml
p1950
sg5
S'19539216'
p1951
sg7
S'19539216.xml'
p1952
sa(dp1953
g3
VNCT00283712.xml
p1954
sg5
S'25123295'
p1955
sg7
S'25123295.xml'
p1956
sa(dp1957
g3
VNCT00284089.xml
p1958
sg5
S'20163368'
p1959
sg7
S'20163368.xml'
p1960
sa(dp1961
g3
VNCT00284141.xml
p1962
sg5
S'20593550'
p1963
sg7
S'20593550.xml'
p1964
sa(dp1965
g3
VNCT00284154.xml
p1966
sg5
S'20521355'
p1967
sg7
S'20521355.xml'
p1968
sa(dp1969
g3
VNCT00284180.xml
p1970
sg5
S'20690806'
p1971
sg7
S'20690806.xml'
p1972
sa(dp1973
g3
VNCT00284856.xml
p1974
sg5
S'23380218'
p1975
sg7
S'23380218.xml'
p1976
sa(dp1977
g3
VNCT00286429.xml
p1978
sg5
S'19758359'
p1979
sg7
S'19758359.xml'
p1980
sa(dp1981
g3
VNCT00286442.xml
p1982
sg5
S'19125992'
p1983
sg7
S'19125992.xml'
p1984
sa(dp1985
g3
VNCT00286455.xml
p1986
sg5
S'18809631'
p1987
sg7
S'18809631.xml'
p1988
sa(dp1989
g3
VNCT00286468.xml
p1990
sg5
S'19125778'
p1991
sg7
S'19125778.xml'
p1992
sa(dp1993
g3
VNCT00286494.xml
p1994
sg5
S'19650752'
p1995
sg7
S'19650752.xml'
p1996
sa(dp1997
g3
VNCT00286728.xml
p1998
sg5
S'20141467'
p1999
sg7
S'20141467.xml'
p2000
sa(dp2001
g3
VNCT00286741.xml
p2002
sg5
S'20513826'
p2003
sg7
S'20513826.xml'
p2004
sa(dp2005
g3
VNCT00286754.xml
p2006
sg5
S'18565801'
p2007
sg7
S'18565801.xml'
p2008
sa(dp2009
g3
VNCT00287339.xml
p2010
sg5
S'21083673'
p2011
sg7
S'21083673.xml'
p2012
sa(dp2013
g3
VNCT00287872.xml
p2014
sg5
S'21241279'
p2015
sg7
S'21241279.xml'
p2016
sa(dp2017
g3
VNCT00288509.xml
p2018
sg5
S'20359934'
p2019
sg7
S'20359934.xml'
p2020
sa(dp2021
g3
VNCT00288587.xml
p2022
sg5
S'22277179'
p2023
sg7
S'22277179.xml'
p2024
sa(dp2025
g3
VNCT00288886.xml
p2026
sg5
S'21443297'
p2027
sg7
S'21443297.xml'
p2028
sa(dp2029
g3
VNCT00288912.xml
p2030
sg5
S'23170757'
p2031
sg7
S'23170757.xml'
p2032
sa(dp2033
g3
VNCT00290615.xml
p2034
sg5
S'21273607'
p2035
sg7
S'21273607.xml'
p2036
sa(dp2037
g3
VNCT00290732.xml
p2038
sg5
S'22030751'
p2039
sg7
S'22030751.xml'
p2040
sa(dp2041
g3
VNCT00291135.xml
p2042
sg5
S'17221152'
p2043
sg7
S'17221152.xml'
p2044
sa(dp2045
g3
VNCT00292227.xml
p2046
sg5
S'18650802'
p2047
sg7
S'18650802.xml'
p2048
sa(dp2049
g3
VNCT00292981.xml
p2050
sg5
S'21195947'
p2051
sg7
S'21195947.xml'
p2052
sa(dp2053
g3
VNCT00293059.xml
p2054
sg5
S'22240178'
p2055
sg7
S'22240178.xml'
p2056
sa(dp2057
g3
VNCT00293254.xml
p2058
sg5
S'20085491'
p2059
sg7
S'20085491.xml'
p2060
sa(dp2061
g3
VNCT00293267.xml
p2062
sg5
S'20085491'
p2063
sg7
S'20085491.xml'
p2064
sa(dp2065
g3
VNCT00295750.xml
p2066
sg5
S'19035858'
p2067
sg7
S'19035858.xml'
p2068
sa(dp2069
g3
VNCT00297037.xml
p2070
sg5
S'21175873'
p2071
sg7
S'21175873.xml'
p2072
sa(dp2073
g3
VNCT00297102.xml
p2074
sg5
S'19716960'
p2075
sg7
S'19716960.xml'
p2076
sa(dp2077
g3
VNCT00297115.xml
p2078
sg5
S'19716960'
p2079
sg7
S'19716960.xml'
p2080
sa(dp2081
g3
VNCT00297492.xml
p2082
sg5
S'20537810'
p2083
sg7
S'20537810.xml'
p2084
sa(dp2085
g3
VNCT00297596.xml
p2086
sg5
S'20690802'
p2087
sg7
S'20690802.xml'
p2088
sa(dp2089
g3
VNCT00298233.xml
p2090
sg5
S'23723457'
p2091
sg7
S'23723457.xml'
p2092
sa(dp2093
g3
VNCT00298363.xml
p2094
sg5
S'21254162'
p2095
sg7
S'21254162.xml'
p2096
sa(dp2097
g3
VNCT00298558.xml
p2098
sg5
S'12425704'
p2099
sg7
S'12425704.xml'
p2100
sa(dp2101
g3
VNCT00299221.xml
p2102
sg5
S'17919618'
p2103
sg7
S'17919618.xml'
p2104
sa(dp2105
g3
VNCT00299741.xml
p2106
sg5
S'19403935'
p2107
sg7
S'19403935.xml'
p2108
sa(dp2109
g3
VNCT00299975.xml
p2110
sg5
S'21045817'
p2111
sg7
S'21045817.xml'
p2112
sa(dp2113
g3
VNCT00301028.xml
p2114
sg5
S'19917840'
p2115
sg7
S'19917840.xml'
p2116
sa(dp2117
g3
VNCT00301821.xml
p2118
sg5
S'21383282'
p2119
sg7
S'21383282.xml'
p2120
sa(dp2121
g3
VNCT00302718.xml
p2122
sg5
S'24026599'
p2123
sg7
S'24026599.xml'
p2124
sa(dp2125
g3
VNCT00303069.xml
p2126
sg5
S'20943877'
p2127
sg7
S'20943877.xml'
p2128
sa(dp2129
g3
VNCT00303316.xml
p2130
sg5
S'22157567'
p2131
sg7
S'22157567.xml'
p2132
sa(dp2133
g3
VNCT00303446.xml
p2134
sg5
S'19846582'
p2135
sg7
S'19846582.xml'
p2136
sa(dp2137
g3
VNCT00304161.xml
p2138
sg5
S'20679638'
p2139
sg7
S'20679638.xml'
p2140
sa(dp2141
g3
VNCT00304265.xml
p2142
sg5
S'20616762'
p2143
sg7
S'20616762.xml'
p2144
sa(dp2145
g3
VNCT00304746.xml
p2146
sg5
S'20520285'
p2147
sg7
S'20520285.xml'
p2148
sa(dp2149
g3
VNCT00305253.xml
p2150
sg5
S'16553654'
p2151
sg7
S'16553654.xml'
p2152
sa(dp2153
g3
VNCT00305344.xml
p2154
sg5
S'22011412'
p2155
sg7
S'22011412.xml'
p2156
sa(dp2157
g3
VNCT00305565.xml
p2158
sg5
S'23122916'
p2159
sg7
S'23122916.xml'
p2160
sa(dp2161
g3
VNCT00305604.xml
p2162
sg5
S'21428727'
p2163
sg7
S'21428727.xml'
p2164
sa(dp2165
g3
VNCT00305942.xml
p2166
sg5
S'20521352'
p2167
sg7
S'20521352.xml'
p2168
sa(dp2169
g3
VNCT00306189.xml
p2170
sg5
S'21927920'
p2171
sg7
S'21927920.xml'
p2172
sa(dp2173
g3
VNCT00306527.xml
p2174
sg5
S'22418809'
p2175
sg7
S'22418809.xml'
p2176
sa(dp2177
g3
VNCT00307164.xml
p2178
sg5
S'20827170'
p2179
sg7
S'20827170.xml'
p2180
sa(dp2181
g3
VNCT00307489.xml
p2182
sg5
S'16871563'
p2183
sg7
S'16871563.xml'
p2184
sa(dp2185
g3
VNCT00307801.xml
p2186
sg5
S'22240178'
p2187
sg7
S'22240178.xml'
p2188
sa(dp2189
g3
VNCT00308581.xml
p2190
sg5
S'20451663'
p2191
sg7
S'20451663.xml'
p2192
sa(dp2193
g3
VNCT00308711.xml
p2194
sg5
S'18827122'
p2195
sg7
S'18827122.xml'
p2196
sa(dp2197
g3
VNCT00309387.xml
p2198
sg5
S'16019690'
p2199
sg7
S'16019690.xml'
p2200
sa(dp2201
g3
VNCT00309946.xml
p2202
sg5
S'22831987'
p2203
sg7
S'22831987.xml'
p2204
sa(dp2205
g3
VNCT00310362.xml
p2206
sg5
S'21504256'
p2207
sg7
S'21504256.xml'
p2208
sa(dp2209
g3
VNCT00310804.xml
p2210
sg5
S'19666152'
p2211
sg7
S'19666152.xml'
p2212
sa(dp2213
g3
VNCT00311584.xml
p2214
sg5
S'21115869'
p2215
sg7
S'21115869.xml'
p2216
sa(dp2217
g3
VNCT00312572.xml
p2218
sg5
S'22409388'
p2219
sg7
S'22409388.xml'
p2220
sa(dp2221
g3
VNCT00313209.xml
p2222
sg5
S'19716961'
p2223
sg7
S'19716961.xml'
p2224
sa(dp2225
g3
VNCT00313716.xml
p2226
sg5
S'25058216'
p2227
sg7
S'25058216.xml'
p2228
sa(dp2229
g3
VNCT00313911.xml
p2230
sg5
S'22531237'
p2231
sg7
S'22531237.xml'
p2232
sa(dp2233
g3
VNCT00314262.xml
p2234
sg5
S'24085777'
p2235
sg7
S'24085777.xml'
p2236
sa(dp2237
g3
VNCT00314340.xml
p2238
sg5
S'19660492'
p2239
sg7
S'19660492.xml'
p2240
sa(dp2241
g3
VNCT00315302.xml
p2242
sg5
S'19139333'
p2243
sg7
S'19139333.xml'
p2244
sa(dp2245
g3
VNCT00315328.xml
p2246
sg5
S'19064841'
p2247
sg7
S'19064841.xml'
p2248
sa(dp2249
g3
VNCT00316264.xml
p2250
sg5
S'20525274'
p2251
sg7
S'20525274.xml'
p2252
sa(dp2253
g3
VNCT00316277.xml
p2254
sg5
S'22065255'
p2255
sg7
S'22065255.xml'
p2256
sa(dp2257
g3
VNCT00316914.xml
p2258
sg5
S'21189381'
p2259
sg7
S'21189381.xml'
p2260
sa(dp2261
g3
VNCT00317239.xml
p2262
sg5
S'20929915'
p2263
sg7
S'20929915.xml'
p2264
sa(dp2265
g3
VNCT00317642.xml
p2266
sg5
S'22585697'
p2267
sg7
S'22585697.xml'
p2268
sa(dp2269
g3
VNCT00317720.xml
p2270
sg5
S'21730275'
p2271
sg7
S'21730275.xml'
p2272
sa(dp2273
g3
VNCT00318292.xml
p2274
sg5
S'18830553'
p2275
sg7
S'18830553.xml'
p2276
sa(dp2277
g3
VNCT00318409.xml
p2278
sg5
S'20397286'
p2279
sg7
S'20397286.xml'
p2280
sa(dp2281
g3
VNCT00318708.xml
p2282
sg5
S'20920764'
p2283
sg7
S'20920764.xml'
p2284
sa(dp2285
g3
VNCT00319436.xml
p2286
sg5
S'20057923'
p2287
sg7
S'20057923.xml'
p2288
sa(dp2289
g3
VNCT00320112.xml
p2290
sg5
S'20956707'
p2291
sg7
S'20956707.xml'
p2292
sa(dp2293
g3
VNCT00320593.xml
p2294
sg5
S'21282579'
p2295
sg7
S'21282579.xml'
p2296
sa(dp2297
g3
VNCT00321711.xml
p2298
sg5
S'22906162'
p2299
sg7
S'22906162.xml'
p2300
sa(dp2301
g3
VNCT00321737.xml
p2302
sg5
S'19210298'
p2303
sg7
S'19210298.xml'
p2304
sa(dp2305
g3
VNCT00321789.xml
p2306
sg5
S'20599337'
p2307
sg7
S'20599337.xml'
p2308
sa(dp2309
g3
VNCT00321906.xml
p2310
sg5
S'20833822'
p2311
sg7
S'20833822.xml'
p2312
sa(dp2313
g3
VNCT00321984.xml
p2314
sg5
S'19392864'
p2315
sg7
S'19392864.xml'
p2316
sa(dp2317
g3
VNCT00322231.xml
p2318
sg5
S'20416263'
p2319
sg7
S'20416263.xml'
p2320
sa(dp2321
g3
VNCT00322387.xml
p2322
sg5
S'19483760'
p2323
sg7
S'19483760.xml'
p2324
sa(dp2325
g3
VNCT00322465.xml
p2326
sg5
S'21288838'
p2327
sg7
S'21288838.xml'
p2328
sa(dp2329
g3
VNCT00322491.xml
p2330
sg5
S'19167685'
p2331
sg7
S'19167685.xml'
p2332
sa(dp2333
g3
VNCT00322556.xml
p2334
sg5
S'20217199'
p2335
sg7
S'20217199.xml'
p2336
sa(dp2337
g3
VNCT00322621.xml
p2338
sg5
S'19637208'
p2339
sg7
S'19637208.xml'
p2340
sa(dp2341
g3
VNCT00322842.xml
p2342
sg5
S'19597422'
p2343
sg7
S'19597422.xml'
p2344
sa(dp2345
g3
VNCT00323115.xml
p2346
sg5
S'21499132'
p2347
sg7
S'21499132.xml'
p2348
sa(dp2349
g3
VNCT00323193.xml
p2350
sg5
S'23584716'
p2351
sg7
S'23584716.xml'
p2352
sa(dp2353
g3
VNCT00323258.xml
p2354
sg5
S'22520532'
p2355
sg7
S'22520532.xml'
p2356
sa(dp2357
g3
VNCT00323284.xml
p2358
sg5
S'20828829'
p2359
sg7
S'20828829.xml'
p2360
sa(dp2361
g3
VNCT00323739.xml
p2362
sg5
S'20368560'
p2363
sg7
S'20368560.xml'
p2364
sa(dp2365
g3
VNCT00324168.xml
p2366
sg5
S'21987582'
p2367
sg7
S'21987582.xml'
p2368
sa(dp2369
g3
VNCT00324272.xml
p2370
sg5
S'21456091'
p2371
sg7
S'21456091.xml'
p2372
sa(dp2373
g3
VNCT00324350.xml
p2374
sg5
S'22723583'
p2375
sg7
S'22723583.xml'
p2376
sa(dp2377
g3
VNCT00324701.xml
p2378
sg5
S'19379517'
p2379
sg7
S'19379517.xml'
p2380
sa(dp2381
g3
VNCT00325039.xml
p2382
sg5
S'24772006'
p2383
sg7
S'24772006.xml'
p2384
sa(dp2385
g3
VNCT00325130.xml
p2386
sg5
S'20439595'
p2387
sg7
S'20439595.xml'
p2388
sa(dp2389
g3
VNCT00325819.xml
p2390
sg5
S'21698100'
p2391
sg7
S'21698100.xml'
p2392
sa(dp2393
g3
VNCT00326781.xml
p2394
sg5
S'16492936'
p2395
sg7
S'16492936.xml'
p2396
sa(dp2397
g3
VNCT00327340.xml
p2398
sg5
S'21788353'
p2399
sg7
S'21788353.xml'
p2400
sa(dp2401
g3
VNCT00328042.xml
p2402
sg5
S'20529203'
p2403
sg7
S'20529203.xml'
p2404
sa(dp2405
g3
VNCT00328627.xml
p2406
sg5
S'22419732'
p2407
sg7
S'22419732.xml'
p2408
sa(dp2409
g3
VNCT00329524.xml
p2410
sg5
S'17334317'
p2411
sg7
S'17334317.xml'
p2412
sa(dp2413
g3
VNCT00329849.xml
p2414
sg5
S'19895922'
p2415
sg7
S'19895922.xml'
p2416
sa(dp2417
g3
VNCT00329901.xml
p2418
sg5
S'20164251'
p2419
sg7
S'20164251.xml'
p2420
sa(dp2421
g3
VNCT00330382.xml
p2422
sg5
S'23639862'
p2423
sg7
S'23639862.xml'
p2424
sa(dp2425
g3
VNCT00330460.xml
p2426
sg5
S'18767928'
p2427
sg7
S'18767928.xml'
p2428
sa(dp2429
g3
VNCT00330733.xml
p2430
sg5
S'23370525'
p2431
sg7
S'23370525.xml'
p2432
sa(dp2433
g3
VNCT00330928.xml
p2434
sg5
S'19608137'
p2435
sg7
S'19608137.xml'
p2436
sa(dp2437
g3
VNCT00332722.xml
p2438
sg5
S'20859313'
p2439
sg7
S'20859313.xml'
p2440
sa(dp2441
g3
VNCT00333619.xml
p2442
sg5
S'22617164'
p2443
sg7
S'22617164.xml'
p2444
sa(dp2445
g3
VNCT00333801.xml
p2446
sg5
S'24708195'
p2447
sg7
S'24708195.xml'
p2448
sa(dp2449
g3
VNCT00333983.xml
p2450
sg5
S'21849168'
p2451
sg7
S'21849168.xml'
p2452
sa(dp2453
g3
VNCT00334113.xml
p2454
sg5
S'22638910'
p2455
sg7
S'22638910.xml'
p2456
sa(dp2457
g3
VNCT00334542.xml
p2458
sg5
S'22076478'
p2459
sg7
S'22076478.xml'
p2460
sa(dp2461
g3
VNCT00335322.xml
p2462
sg5
S'20735258'
p2463
sg7
S'20735258.xml'
p2464
sa(dp2465
g3
VNCT00335452.xml
p2466
sg5
S'20818903'
p2467
sg7
S'20818903.xml'
p2468
sa(dp2469
g3
VNCT00336284.xml
p2470
sg5
S'20625110'
p2471
sg7
S'20625110.xml'
p2472
sa(dp2473
g3
VNCT00336323.xml
p2474
sg5
S'17698196'
p2475
sg7
S'17698196.xml'
p2476
sa(dp2477
g3
VNCT00336583.xml
p2478
sg5
S'18839172'
p2479
sg7
S'18839172.xml'
p2480
sa(dp2481
g3
VNCT00337285.xml
p2482
sg5
S'21438796'
p2483
sg7
S'21438796.xml'
p2484
sa(dp2485
g3
VNCT00337428.xml
p2486
sg5
S'19952980'
p2487
sg7
S'19952980.xml'
p2488
sa(dp2489
g3
VNCT00337675.xml
p2490
sg5
S'21624752'
p2491
sg7
S'21624752.xml'
p2492
sa(dp2493
g3
VNCT00337727.xml
p2494
sg5
S'19568773'
p2495
sg7
S'19568773.xml'
p2496
sa(dp2497
g3
VNCT00338104.xml
p2498
sg5
S'17229660'
p2499
sg7
S'17229660.xml'
p2500
sa(dp2501
g3
VNCT00339040.xml
p2502
sg5
S'20574412'
p2503
sg7
S'20574412.xml'
p2504
sa(dp2505
g3
VNCT00339183.xml
p2506
sg5
S'20921462'
p2507
sg7
S'20921462.xml'
p2508
sa(dp2509
g3
VNCT00340678.xml
p2510
sg5
S'23545707'
p2511
sg7
S'23545707.xml'
p2512
sa(dp2513
g3
VNCT00343044.xml
p2514
sg5
S'21815133'
p2515
sg7
S'21815133.xml'
p2516
sa(dp2517
g3
VNCT00343382.xml
p2518
sg5
S'21702402'
p2519
sg7
S'21702402.xml'
p2520
sa(dp2521
g3
VNCT00344305.xml
p2522
sg5
S'21513761'
p2523
sg7
S'21513761.xml'
p2524
sa(dp2525
g3
VNCT00345631.xml
p2526
sg5
S'19695549'
p2527
sg7
S'19695549.xml'
p2528
sa(dp2529
g3
VNCT00346333.xml
p2530
sg5
S'20385935'
p2531
sg7
S'20385935.xml'
p2532
sa(dp2533
g3
VNCT00346697.xml
p2534
sg5
S'23683266'
p2535
sg7
S'23683266.xml'
p2536
sa(dp2537
g3
VNCT00349349.xml
p2538
sg5
S'20194866'
p2539
sg7
S'20194866.xml'
p2540
sa(dp2541
g3
VNCT00349466.xml
p2542
sg5
S'20304499'
p2543
sg7
S'20304499.xml'
p2544
sa(dp2545
g3
VNCT00350636.xml
p2546
sg5
S'19233423'
p2547
sg7
S'19233423.xml'
p2548
sa(dp2549
g3
VNCT00353496.xml
p2550
sg5
S'25014687'
p2551
sg7
S'25014687.xml'
p2552
sa(dp2553
g3
VNCT00354484.xml
p2554
sg5
S'17666600'
p2555
sg7
S'17666600.xml'
p2556
sa(dp2557
g3
VNCT00354887.xml
p2558
sg5
S'19164203'
p2559
sg7
S'19164203.xml'
p2560
sa(dp2561
g3
VNCT00354913.xml
p2562
sg5
S'21938530'
p2563
sg7
S'21938530.xml'
p2564
sa(dp2565
g3
VNCT00355147.xml
p2566
sg5
S'21159171'
p2567
sg7
S'21159171.xml'
p2568
sa(dp2569
g3
VNCT00355706.xml
p2570
sg5
S'22851967'
p2571
sg7
S'22851967.xml'
p2572
sa(dp2573
g3
VNCT00355914.xml
p2574
sg5
S'20567613'
p2575
sg7
S'20567613.xml'
p2576
sa(dp2577
g3
VNCT00356135.xml
p2578
sg5
S'20846599'
p2579
sg7
S'20846599.xml'
p2580
sa(dp2581
g3
VNCT00356304.xml
p2582
sg5
S'23300127'
p2583
sg7
S'23300127.xml'
p2584
sa(dp2585
g3
VNCT00356590.xml
p2586
sg5
S'15996057'
p2587
sg7
S'15996057.xml'
p2588
sa(dp2589
g3
VNCT00357552.xml
p2590
sg5
S'22441252'
p2591
sg7
S'22441252.xml'
p2592
sa(dp2593
g3
VNCT00357955.xml
p2594
sg5
S'19966072'
p2595
sg7
S'19966072.xml'
p2596
sa(dp2597
g3
VNCT00358332.xml
p2598
sg5
S'20140214'
p2599
sg7
S'20140214.xml'
p2600
sa(dp2601
g3
VNCT00358735.xml
p2602
sg5
S'20194309'
p2603
sg7
S'20194309.xml'
p2604
sa(dp2605
g3
VNCT00359216.xml
p2606
sg5
S'20642206'
p2607
sg7
S'20642206.xml'
p2608
sa(dp2609
g3
VNCT00359736.xml
p2610
sg5
S'20012639'
p2611
sg7
S'20012639.xml'
p2612
sa(dp2613
g3
VNCT00360282.xml
p2614
sg5
S'20862509'
p2615
sg7
S'20862509.xml'
p2616
sa(dp2617
g3
VNCT00360334.xml
p2618
sg5
S'19930005'
p2619
sg7
S'19930005.xml'
p2620
sa(dp2621
g3
VNCT00360360.xml
p2622
sg5
S'19965914'
p2623
sg7
S'19965914.xml'
p2624
sa(dp2625
g3
VNCT00360490.xml
p2626
sg5
S'21475963'
p2627
sg7
S'21475963.xml'
p2628
sa(dp2629
g3
VNCT00361140.xml
p2630
sg5
S'22198540'
p2631
sg7
S'22198540.xml'
p2632
sa(dp2633
g3
VNCT00361569.xml
p2634
sg5
S'19252451'
p2635
sg7
S'19252451.xml'
p2636
sa(dp2637
g3
VNCT00362232.xml
p2638
sg5
S'19411100'
p2639
sg7
S'19411100.xml'
p2640
sa(dp2641
g3
VNCT00362336.xml
p2642
sg5
S'21289531'
p2643
sg7
S'21289531.xml'
p2644
sa(dp2645
g3
VNCT00362375.xml
p2646
sg5
S'20135214'
p2647
sg7
S'20135214.xml'
p2648
sa(dp2649
g3
VNCT00363129.xml
p2650
sg5
S'20936417'
p2651
sg7
S'20936417.xml'
p2652
sa(dp2653
g3
VNCT00363168.xml
p2654
sg5
S'20827138'
p2655
sg7
S'20827138.xml'
p2656
sa(dp2657
g3
VNCT00364156.xml
p2658
sg5
S'18328642'
p2659
sg7
S'18328642.xml'
p2660
sa(dp2661
g3
VNCT00364377.xml
p2662
sg5
S'20039889'
p2663
sg7
S'20039889.xml'
p2664
sa(dp2665
g3
VNCT00365144.xml
p2666
sg5
S'20130876'
p2667
sg7
S'20130876.xml'
p2668
sa(dp2669
g3
VNCT00365261.xml
p2670
sg5
S'21116652'
p2671
sg7
S'21116652.xml'
p2672
sa(dp2673
g3
VNCT00365846.xml
p2674
sg5
S'17018123'
p2675
sg7
S'17018123.xml'
p2676
sa(dp2677
g3
VNCT00366028.xml
p2678
sg5
S'20551771'
p2679
sg7
S'20551771.xml'
p2680
sa(dp2681
g3
VNCT00366275.xml
p2682
sg5
S'18344536'
p2683
sg7
S'18344536.xml'
p2684
sa(dp2685
g3
VNCT00366444.xml
p2686
sg5
S'19922878'
p2687
sg7
S'19922878.xml'
p2688
sa(dp2689
g3
VNCT00367133.xml
p2690
sg5
S'17765429'
p2691
sg7
S'17765429.xml'
p2692
sa(dp2693
g3
VNCT00367341.xml
p2694
sg5
S'23760393'
p2695
sg7
S'23760393.xml'
p2696
sa(dp2697
g3
VNCT00367835.xml
p2698
sg5
S'20806988'
p2699
sg7
S'20806988.xml'
p2700
sa(dp2701
g3
VNCT00367991.xml
p2702
sg5
S'19958860'
p2703
sg7
S'19958860.xml'
p2704
sa(dp2705
g3
VNCT00368069.xml
p2706
sg5
S'19317886'
p2707
sg7
S'19317886.xml'
p2708
sa(dp2709
g3
VNCT00368316.xml
p2710
sg5
S'20056180'
p2711
sg7
S'20056180.xml'
p2712
sa(dp2713
g3
VNCT00369486.xml
p2714
sg5
S'17544778'
p2715
sg7
S'17544778.xml'
p2716
sa(dp2717
g3
VNCT00369512.xml
p2718
sg5
S'23182701'
p2719
sg7
S'23182701.xml'
p2720
sa(dp2721
g3
VNCT00369668.xml
p2722
sg5
S'14617717'
p2723
sg7
S'14617717.xml'
p2724
sa(dp2725
g3
VNCT00369941.xml
p2726
sg5
S'19647866'
p2727
sg7
S'19647866.xml'
p2728
sa(dp2729
g3
VNCT00371137.xml
p2730
sg5
S'21397402'
p2731
sg7
S'21397402.xml'
p2732
sa(dp2733
g3
VNCT00371176.xml
p2734
sg5
S'22694905'
p2735
sg7
S'22694905.xml'
p2736
sa(dp2737
g3
VNCT00371267.xml
p2738
sg5
S'23244028'
p2739
sg7
S'23244028.xml'
p2740
sa(dp2741
g3
VNCT00371397.xml
p2742
sg5
S'20064902'
p2743
sg7
S'20064902.xml'
p2744
sa(dp2745
g3
VNCT00371436.xml
p2746
sg5
S'20625568'
p2747
sg7
S'20625568.xml'
p2748
sa(dp2749
g3
VNCT00371631.xml
p2750
sg5
S'21813209'
p2751
sg7
S'21813209.xml'
p2752
sa(dp2753
g3
VNCT00371644.xml
p2754
sg5
S'23325750'
p2755
sg7
S'23325750.xml'
p2756
sa(dp2757
g3
VNCT00371865.xml
p2758
sg5
S'21683527'
p2759
sg7
S'21683527.xml'
p2760
sa(dp2761
g3
VNCT00372411.xml
p2762
sg5
S'19541917'
p2763
sg7
S'19541917.xml'
p2764
sa(dp2765
g3
VNCT00372970.xml
p2766
sg5
S'18070232'
p2767
sg7
S'18070232.xml'
p2768
sa(dp2769
g3
VNCT00373490.xml
p2770
sg5
S'22234637'
p2771
sg7
S'22234637.xml'
p2772
sa(dp2773
g3
VNCT00373529.xml
p2774
sg5
S'20026805'
p2775
sg7
S'20026805.xml'
p2776
sa(dp2777
g3
VNCT00373698.xml
p2778
sg5
S'22865017'
p2779
sg7
S'22865017.xml'
p2780
sa(dp2781
g3
VNCT00375999.xml
p2782
sg5
S'18332648'
p2783
sg7
S'18332648.xml'
p2784
sa(dp2785
g3
VNCT00376675.xml
p2786
sg5
S'20625123'
p2787
sg7
S'20625123.xml'
p2788
sa(dp2789
g3
VNCT00377572.xml
p2790
sg5
S'21410369'
p2791
sg7
S'21410369.xml'
p2792
sa(dp2793
g3
VNCT00377676.xml
p2794
sg5
S'20332352'
p2795
sg7
S'20332352.xml'
p2796
sa(dp2797
g3
VNCT00377819.xml
p2798
sg5
S'19594293'
p2799
sg7
S'19594293.xml'
p2800
sa(dp2801
g3
VNCT00378079.xml
p2802
sg5
S'17628351'
p2803
sg7
S'17628351.xml'
p2804
sa(dp2805
g3
VNCT00378378.xml
p2806
sg5
S'23331528'
p2807
sg7
S'23331528.xml'
p2808
sa(dp2809
g3
VNCT00378560.xml
p2810
sg5
S'23331518'
p2811
sg7
S'23331518.xml'
p2812
sa(dp2813
g3
VNCT00378599.xml
p2814
sg5
S'22739223'
p2815
sg7
S'22739223.xml'
p2816
sa(dp2817
g3
VNCT00379236.xml
p2818
sg5
S'21820521'
p2819
sg7
S'21820521.xml'
p2820
sa(dp2821
g3
VNCT00379288.xml
p2822
sg5
S'20874458'
p2823
sg7
S'20874458.xml'
p2824
sa(dp2825
g3
VNCT00379639.xml
p2826
sg5
S'22536933'
p2827
sg7
S'22536933.xml'
p2828
sa(dp2829
g3
VNCT00380250.xml
p2830
sg5
S'19006537'
p2831
sg7
S'19006537.xml'
p2832
sa(dp2833
g3
VNCT00381550.xml
p2834
sg5
S'24362550'
p2835
sg7
S'24362550.xml'
p2836
sa(dp2837
g3
VNCT00381849.xml
p2838
sg5
S'21419606'
p2839
sg7
S'21419606.xml'
p2840
sa(dp2841
g3
VNCT00382291.xml
p2842
sg5
S'23031804'
p2843
sg7
S'23031804.xml'
p2844
sa(dp2845
g3
VNCT00383552.xml
p2846
sg5
S'21828036'
p2847
sg7
S'21828036.xml'
p2848
sa(dp2849
g3
VNCT00384748.xml
p2850
sg5
S'18720112'
p2851
sg7
S'18720112.xml'
p2852
sa(dp2853
g3
VNCT00384813.xml
p2854
sg5
S'22353006'
p2855
sg7
S'22353006.xml'
p2856
sa(dp2857
g3
VNCT00385541.xml
p2858
sg5
S'18806056'
p2859
sg7
S'18806056.xml'
p2860
sa(dp2861
g3
VNCT00385671.xml
p2862
sg5
S'21719618'
p2863
sg7
S'21719618.xml'
p2864
sa(dp2865
g3
VNCT00385723.xml
p2866
sg5
S'22640930'
p2867
sg7
S'22640930.xml'
p2868
sa(dp2869
g3
VNCT00385918.xml
p2870
sg5
S'24534779'
p2871
sg7
S'24534779.xml'
p2872
sa(dp2873
g3
VNCT00386243.xml
p2874
sg5
S'19470987'
p2875
sg7
S'19470987.xml'
p2876
sa(dp2877
g3
VNCT00386334.xml
p2878
sg5
S'20175406'
p2879
sg7
S'20175406.xml'
p2880
sa(dp2881
g3
VNCT00386776.xml
p2882
sg5
S'21113077'
p2883
sg7
S'21113077.xml'
p2884
sa(dp2885
g3
VNCT00389168.xml
p2886
sg5
S'11403367'
p2887
sg7
S'11403367.xml'
p2888
sa(dp2889
g3
VNCT00389493.xml
p2890
sg5
S'24026523'
p2891
sg7
S'24026523.xml'
p2892
sa(dp2893
g3
VNCT00390468.xml
p2894
sg5
S'21290244'
p2895
sg7
S'21290244.xml'
p2896
sa(dp2897
g3
VNCT00390572.xml
p2898
sg5
S'22172964'
p2899
sg7
S'22172964.xml'
p2900
sa(dp2901
g3
VNCT00391053.xml
p2902
sg5
S'19508159'
p2903
sg7
S'19508159.xml'
p2904
sa(dp2905
g3
VNCT00391079.xml
p2906
sg5
S'23180178'
p2907
sg7
S'23180178.xml'
p2908
sa(dp2909
g3
VNCT00391716.xml
p2910
sg5
S'24190578'
p2911
sg7
S'24190578.xml'
p2912
sa(dp2913
g3
VNCT00391768.xml
p2914
sg5
S'23230059'
p2915
sg7
S'23230059.xml'
p2916
sa(dp2917
g3
VNCT00392678.xml
p2918
sg5
S'20231565'
p2919
sg7
S'20231565.xml'
p2920
sa(dp2921
g3
VNCT00392808.xml
p2922
sg5
S'20375851'
p2923
sg7
S'20375851.xml'
p2924
sa(dp2925
g3
VNCT00393523.xml
p2926
sg5
S'20724955'
p2927
sg7
S'20724955.xml'
p2928
sa(dp2929
g3
VNCT00394251.xml
p2930
sg5
S'21976055'
p2931
sg7
S'21976055.xml'
p2932
sa(dp2933
g3
VNCT00394329.xml
p2934
sg5
S'21324520'
p2935
sg7
S'21324520.xml'
p2936
sa(dp2937
g3
VNCT00394355.xml
p2938
sg5
S'24565713'
p2939
sg7
S'24565713.xml'
p2940
sa(dp2941
g3
VNCT00394524.xml
p2942
sg5
S'20945468'
p2943
sg7
S'20945468.xml'
p2944
sa(dp2945
g3
VNCT00395304.xml
p2946
sg5
S'20197425'
p2947
sg7
S'20197425.xml'
p2948
sa(dp2949
g3
VNCT00395343.xml
p2950
sg5
S'20092585'
p2951
sg7
S'20092585.xml'
p2952
sa(dp2953
g3
VNCT00395512.xml
p2954
sg5
S'20724648'
p2955
sg7
S'20724648.xml'
p2956
sa(dp2957
g3
VNCT00395863.xml
p2958
sg5
S'19306364'
p2959
sg7
S'19306364.xml'
p2960
sa(dp2961
g3
VNCT00395993.xml
p2962
sg5
S'18567277'
p2963
sg7
S'18567277.xml'
p2964
sa(dp2965
g3
VNCT00396084.xml
p2966
sg5
S'16776446'
p2967
sg7
S'16776446.xml'
p2968
sa(dp2969
g3
VNCT00396266.xml
p2970
sg5
S'19135941'
p2971
sg7
S'19135941.xml'
p2972
sa(dp2973
g3
VNCT00397150.xml
p2974
sg5
S'20716352'
p2975
sg7
S'20716352.xml'
p2976
sa(dp2977
g3
VNCT00397631.xml
p2978
sg5
S'21235696'
p2979
sg7
S'21235696.xml'
p2980
sa(dp2981
g3
VNCT00398411.xml
p2982
sg5
S'22169408'
p2983
sg7
S'22169408.xml'
p2984
sa(dp2985
g3
VNCT00400634.xml
p2986
sg5
S'20970382'
p2987
sg7
S'20970382.xml'
p2988
sa(dp2989
g3
VNCT00401258.xml
p2990
sg5
S'19548294'
p2991
sg7
S'19548294.xml'
p2992
sa(dp2993
g3
VNCT00401531.xml
p2994
sg5
S'21334243'
p2995
sg7
S'21334243.xml'
p2996
sa(dp2997
g3
VNCT00401544.xml
p2998
sg5
S'20661916'
p2999
sg7
S'20661916.xml'
p3000
sa(dp3001
g3
VNCT00402285.xml
p3002
sg5
S'21912659'
p3003
sg7
S'21912659.xml'
p3004
sa(dp3005
g3
VNCT00402363.xml
p3006
sg5
S'21078810'
p3007
sg7
S'21078810.xml'
p3008
sa(dp3009
g3
VNCT00402597.xml
p3010
sg5
S'19539361'
p3011
sg7
S'19539361.xml'
p3012
sa(dp3013
g3
VNCT00402727.xml
p3014
sg5
S'21896561'
p3015
sg7
S'21896561.xml'
p3016
sa(dp3017
g3
VNCT00404079.xml
p3018
sg5
S'20606148'
p3019
sg7
S'20606148.xml'
p3020
sa(dp3021
g3
VNCT00404092.xml
p3022
sg5
S'21911573'
p3023
sg7
S'21911573.xml'
p3024
sa(dp3025
g3
VNCT00405275.xml
p3026
sg5
S'23755969'
p3027
sg7
S'23755969.xml'
p3028
sa(dp3029
g3
VNCT00405704.xml
p3030
sg5
S'23753091'
p3031
sg7
S'23753091.xml'
p3032
sa(dp3033
g3
VNCT00405912.xml
p3034
sg5
S'20590478'
p3035
sg7
S'20590478.xml'
p3036
sa(dp3037
g3
VNCT00405964.xml
p3038
sg5
S'20559006'
p3039
sg7
S'20559006.xml'
p3040
sa(dp3041
g3
VNCT00406133.xml
p3042
sg5
S'18779236'
p3043
sg7
S'18779236.xml'
p3044
sa(dp3045
g3
VNCT00406367.xml
p3046
sg5
S'21520284'
p3047
sg7
S'21520284.xml'
p3048
sa(dp3049
g3
VNCT00406783.xml
p3050
sg5
S'19624554'
p3051
sg7
S'19624554.xml'
p3052
sa(dp3053
g3
VNCT00407030.xml
p3054
sg5
S'21764407'
p3055
sg7
S'21764407.xml'
p3056
sa(dp3057
g3
VNCT00408200.xml
p3058
sg5
S'19738139'
p3059
sg7
S'19738139.xml'
p3060
sa(dp3061
g3
VNCT00408993.xml
p3062
sg5
S'21163113'
p3063
sg7
S'21163113.xml'
p3064
sa(dp3065
g3
VNCT00409240.xml
p3066
sg5
S'22021025'
p3067
sg7
S'22021025.xml'
p3068
sa(dp3069
g3
VNCT00409292.xml
p3070
sg5
S'19047305'
p3071
sg7
S'19047305.xml'
p3072
sa(dp3073
g3
VNCT00411216.xml
p3074
sg5
S'9831156'
p3075
sg7
S'9831156.xml'
p3076
sa(dp3077
g3
VNCT00411554.xml
p3078
sg5
S'20590736'
p3079
sg7
S'20590736.xml'
p3080
sa(dp3081
g3
VNCT00412464.xml
p3082
sg5
S'21319285'
p3083
sg7
S'21319285.xml'
p3084
sa(dp3085
g3
VNCT00412529.xml
p3086
sg5
S'20028815'
p3087
sg7
S'20028815.xml'
p3088
sa(dp3089
g3
VNCT00412867.xml
p3090
sg5
S'20075341'
p3091
sg7
S'20075341.xml'
p3092
sa(dp3093
g3
VNCT00414700.xml
p3094
sg5
S'18202295'
p3095
sg7
S'18202295.xml'
p3096
sa(dp3097
g3
VNCT00416078.xml
p3098
sg5
S'22662739'
p3099
sg7
S'22662739.xml'
p3100
sa(dp3101
g3
VNCT00417482.xml
p3102
sg5
S'23075176'
p3103
sg7
S'23075176.xml'
p3104
sa(dp3105
g3
VNCT00418834.xml
p3106
sg5
S'20185012'
p3107
sg7
S'20185012.xml'
p3108
sa(dp3109
g3
VNCT00419315.xml
p3110
sg5
S'24052453'
p3111
sg7
S'24052453.xml'
p3112
sa(dp3113
g3
VNCT00419341.xml
p3114
sg5
S'20454851'
p3115
sg7
S'20454851.xml'
p3116
sa(dp3117
g3
VNCT00420017.xml
p3118
sg5
S'20381077'
p3119
sg7
S'20381077.xml'
p3120
sa(dp3121
g3
VNCT00420290.xml
p3122
sg5
S'21310819'
p3123
sg7
S'21310819.xml'
p3124
sa(dp3125
g3
VNCT00420420.xml
p3126
sg5
S'22272611'
p3127
sg7
S'22272611.xml'
p3128
sa(dp3129
g3
VNCT00422162.xml
p3130
sg5
S'20868642'
p3131
sg7
S'20868642.xml'
p3132
sa(dp3133
g3
VNCT00422279.xml
p3134
sg5
S'17032115'
p3135
sg7
S'17032115.xml'
p3136
sa(dp3137
g3
VNCT00423488.xml
p3138
sg5
S'20492655'
p3139
sg7
S'20492655.xml'
p3140
sa(dp3141
g3
VNCT00424008.xml
p3142
sg5
S'22152089'
p3143
sg7
S'22152089.xml'
p3144
sa(dp3145
g3
VNCT00424047.xml
p3146
sg5
S'18032762'
p3147
sg7
S'18032762.xml'
p3148
sa(dp3149
g3
VNCT00424268.xml
p3150
sg5
S'19716961'
p3151
sg7
S'19716961.xml'
p3152
sa(dp3153
g3
VNCT00424762.xml
p3154
sg5
S'20601395'
p3155
sg7
S'20601395.xml'
p3156
sa(dp3157
g3
VNCT00425750.xml
p3158
sg5
S'19850643'
p3159
sg7
S'19850643.xml'
p3160
sa(dp3161
g3
VNCT00425945.xml
p3162
sg5
S'20876405'
p3163
sg7
S'20876405.xml'
p3164
sa(dp3165
g3
VNCT00426153.xml
p3166
sg5
S'22773240'
p3167
sg7
S'22773240.xml'
p3168
sa(dp3169
g3
VNCT00426842.xml
p3170
sg5
S'20801263'
p3171
sg7
S'20801263.xml'
p3172
sa(dp3173
g3
VNCT00426855.xml
p3174
sg5
S'19860608'
p3175
sg7
S'19860608.xml'
p3176
sa(dp3177
g3
VNCT00427037.xml
p3178
sg5
S'18238736'
p3179
sg7
S'18238736.xml'
p3180
sa(dp3181
g3
VNCT00427804.xml
p3182
sg5
S'20306476'
p3183
sg7
S'20306476.xml'
p3184
sa(dp3185
g3
VNCT00428246.xml
p3186
sg5
S'18606901'
p3187
sg7
S'18606901.xml'
p3188
sa(dp3189
g3
VNCT00428974.xml
p3190
sg5
S'21504485'
p3191
sg7
S'21504485.xml'
p3192
sa(dp3193
g3
VNCT00429494.xml
p3194
sg5
S'22282904'
p3195
sg7
S'22282904.xml'
p3196
sa(dp3197
g3
VNCT00430248.xml
p3198
sg5
S'20370912'
p3199
sg7
S'20370912.xml'
p3200
sa(dp3201
g3
VNCT00430781.xml
p3202
sg5
S'20606083'
p3203
sg7
S'20606083.xml'
p3204
sa(dp3205
g3
VNCT00432237.xml
p3206
sg5
S'19770473'
p3207
sg7
S'19770473.xml'
p3208
sa(dp3209
g3
VNCT00432276.xml
p3210
sg5
S'21733058'
p3211
sg7
S'21733058.xml'
p3212
sa(dp3213
g3
VNCT00432835.xml
p3214
sg5
S'21872708'
p3215
sg7
S'21872708.xml'
p3216
sa(dp3217
g3
VNCT00433160.xml
p3218
sg5
S'20580870'
p3219
sg7
S'20580870.xml'
p3220
sa(dp3221
g3
VNCT00433446.xml
p3222
sg5
S'20484019'
p3223
sg7
S'20484019.xml'
p3224
sa(dp3225
g3
VNCT00434213.xml
p3226
sg5
S'21494336'
p3227
sg7
S'21494336.xml'
p3228
sa(dp3229
g3
VNCT00434421.xml
p3230
sg5
S'24184147'
p3231
sg7
S'24184147.xml'
p3232
sa(dp3233
g3
VNCT00435188.xml
p3234
sg5
S'18566924'
p3235
sg7
S'18566924.xml'
p3236
sa(dp3237
g3
VNCT00436618.xml
p3238
sg5
S'20142598'
p3239
sg7
S'20142598.xml'
p3240
sa(dp3241
g3
VNCT00436904.xml
p3242
sg5
S'18759253'
p3243
sg7
S'18759253.xml'
p3244
sa(dp3245
g3
VNCT00436956.xml
p3246
sg5
S'23419134'
p3247
sg7
S'23419134.xml'
p3248
sa(dp3249
g3
VNCT00438659.xml
p3250
sg5
S'20800381'
p3251
sg7
S'20800381.xml'
p3252
sa(dp3253
g3
VNCT00438932.xml
p3254
sg5
S'20631407'
p3255
sg7
S'20631407.xml'
p3256
sa(dp3257
g3
VNCT00438971.xml
p3258
sg5
S'19228176'
p3259
sg7
S'19228176.xml'
p3260
sa(dp3261
g3
VNCT00439335.xml
p3262
sg5
S'22891287'
p3263
sg7
S'22891287.xml'
p3264
sa(dp3265
g3
VNCT00439517.xml
p3266
sg5
S'24370353'
p3267
sg7
S'24370353.xml'
p3268
sa(dp3269
g3
VNCT00439725.xml
p3270
sg5
S'22371186'
p3271
sg7
S'22371186.xml'
p3272
sa(dp3273
g3
VNCT00439777.xml
p3274
sg5
S'22449293'
p3275
sg7
S'22449293.xml'
p3276
sa(dp3277
g3
VNCT00440193.xml
p3278
sg5
S'21128814'
p3279
sg7
S'21128814.xml'
p3280
sa(dp3281
g3
VNCT00440297.xml
p3282
sg5
S'25252192'
p3283
sg7
S'25252192.xml'
p3284
sa(dp3285
g3
VNCT00440830.xml
p3286
sg5
S'19923530'
p3287
sg7
S'19923530.xml'
p3288
sa(dp3289
g3
VNCT00441012.xml
p3290
sg5
S'21875633'
p3291
sg7
S'21875633.xml'
p3292
sa(dp3293
g3
VNCT00441064.xml
p3294
sg5
S'20876343'
p3295
sg7
S'20876343.xml'
p3296
sa(dp3297
g3
VNCT00441103.xml
p3298
sg5
S'20200197'
p3299
sg7
S'20200197.xml'
p3300
sa(dp3301
g3
VNCT00441285.xml
p3302
sg5
S'21332573'
p3303
sg7
S'21332573.xml'
p3304
sa(dp3305
g3
VNCT00441792.xml
p3306
sg5
S'20828877'
p3307
sg7
S'20828877.xml'
p3308
sa(dp3309
g3
VNCT00442013.xml
p3310
sg5
S'22274684'
p3311
sg7
S'22274684.xml'
p3312
sa(dp3313
g3
VNCT00443209.xml
p3314
sg5
S'21070230'
p3315
sg7
S'21070230.xml'
p3316
sa(dp3317
g3
VNCT00443599.xml
p3318
sg5
S'22957521'
p3319
sg7
S'22957521.xml'
p3320
sa(dp3321
g3
VNCT00443755.xml
p3322
sg5
S'22677076'
p3323
sg7
S'22677076.xml'
p3324
sa(dp3325
g3
VNCT00443872.xml
p3326
sg5
S'19855267'
p3327
sg7
S'19855267.xml'
p3328
sa(dp3329
g3
VNCT00446199.xml
p3330
sg5
S'23963309'
p3331
sg7
S'23963309.xml'
p3332
sa(dp3333
g3
VNCT00446849.xml
p3334
sg5
S'21837775'
p3335
sg7
S'21837775.xml'
p3336
sa(dp3337
g3
VNCT00447499.xml
p3338
sg5
S'19898989'
p3339
sg7
S'19898989.xml'
p3340
sa(dp3341
g3
VNCT00448344.xml
p3342
sg5
S'19139966'
p3343
sg7
S'19139966.xml'
p3344
sa(dp3345
g3
VNCT00448448.xml
p3346
sg5
S'24047455'
p3347
sg7
S'24047455.xml'
p3348
sa(dp3349
g3
VNCT00448760.xml
p3350
sg5
S'21258083'
p3351
sg7
S'21258083.xml'
p3352
sa(dp3353
g3
VNCT00449033.xml
p3354
sg5
S'22851564'
p3355
sg7
S'22851564.xml'
p3356
sa(dp3357
g3
VNCT00449644.xml
p3358
sg5
S'19494215'
p3359
sg7
S'19494215.xml'
p3360
sa(dp3361
g3
VNCT00449930.xml
p3362
sg5
S'20070351'
p3363
sg7
S'20070351.xml'
p3364
sa(dp3365
g3
VNCT00449956.xml
p3366
sg5
S'21735753'
p3367
sg7
S'21735753.xml'
p3368
sa(dp3369
g3
VNCT00450073.xml
p3370
sg5
S'22805498'
p3371
sg7
S'22805498.xml'
p3372
sa(dp3373
g3
VNCT00450372.xml
p3374
sg5
S'22472884'
p3375
sg7
S'22472884.xml'
p3376
sa(dp3377
g3
VNCT00450424.xml
p3378
sg5
S'20142594'
p3379
sg7
S'20142594.xml'
p3380
sa(dp3381
g3
VNCT00450437.xml
p3382
sg5
S'19476428'
p3383
sg7
S'19476428.xml'
p3384
sa(dp3385
g3
VNCT00450723.xml
p3386
sg5
S'18723148'
p3387
sg7
S'18723148.xml'
p3388
sa(dp3389
g3
VNCT00451191.xml
p3390
sg5
S'21791356'
p3391
sg7
S'21791356.xml'
p3392
sa(dp3393
g3
VNCT00451282.xml
p3394
sg5
S'21594900'
p3395
sg7
S'21594900.xml'
p3396
sa(dp3397
g3
VNCT00453063.xml
p3398
sg5
S'21261661'
p3399
sg7
S'21261661.xml'
p3400
sa(dp3401
g3
VNCT00453336.xml
p3402
sg5
S'23055220'
p3403
sg7
S'23055220.xml'
p3404
sa(dp3405
g3
VNCT00453349.xml
p3406
sg5
S'20716255'
p3407
sg7
S'20716255.xml'
p3408
sa(dp3409
g3
VNCT00454532.xml
p3410
sg5
S'20054647'
p3411
sg7
S'20054647.xml'
p3412
sa(dp3413
g3
VNCT00454818.xml
p3414
sg5
S'19327618'
p3415
sg7
S'19327618.xml'
p3416
sa(dp3417
g3
VNCT00455702.xml
p3418
sg5
S'18799288'
p3419
sg7
S'18799288.xml'
p3420
sa(dp3421
g3
VNCT00456495.xml
p3422
sg5
S'22186988'
p3423
sg7
S'22186988.xml'
p3424
sa(dp3425
g3
VNCT00456521.xml
p3426
sg5
S'20559296'
p3427
sg7
S'20559296.xml'
p3428
sa(dp3429
g3
VNCT00456599.xml
p3430
sg5
S'23720019'
p3431
sg7
S'23720019.xml'
p3432
sa(dp3433
g3
VNCT00457418.xml
p3434
sg5
S'20509027'
p3435
sg7
S'20509027.xml'
p3436
sa(dp3437
g3
VNCT00457821.xml
p3438
sg5
S'21083385'
p3439
sg7
S'21083385.xml'
p3440
sa(dp3441
g3
VNCT00458406.xml
p3442
sg5
S'22334807'
p3443
sg7
S'22334807.xml'
p3444
sa(dp3445
g3
VNCT00459290.xml
p3446
sg5
S'19922989'
p3447
sg7
S'19922989.xml'
p3448
sa(dp3449
g3
VNCT00459316.xml
p3450
sg5
S'20431379'
p3451
sg7
S'20431379.xml'
p3452
sa(dp3453
g3
VNCT00459355.xml
p3454
sg5
S'24195007'
p3455
sg7
S'24195007.xml'
p3456
sa(dp3457
g3
VNCT00460525.xml
p3458
sg5
S'12011004'
p3459
sg7
S'12011004.xml'
p3460
sa(dp3461
g3
VNCT00461097.xml
p3462
sg5
S'22808958'
p3463
sg7
S'22808958.xml'
p3464
sa(dp3465
g3
VNCT00462644.xml
p3466
sg5
S'18784570'
p3467
sg7
S'18784570.xml'
p3468
sa(dp3469
g3
VNCT00464464.xml
p3470
sg5
S'21676990'
p3471
sg7
S'21676990.xml'
p3472
sa(dp3473
g3
VNCT00466206.xml
p3474
sg5
S'9628377'
p3475
sg7
S'9628377.xml'
p3476
sa(dp3477
g3
VNCT00466310.xml
p3478
sg5
S'22513041'
p3479
sg7
S'22513041.xml'
p3480
sa(dp3481
g3
VNCT00466323.xml
p3482
sg5
S'18678695'
p3483
sg7
S'18678695.xml'
p3484
sa(dp3485
g3
VNCT00467389.xml
p3486
sg5
S'19836169'
p3487
sg7
S'19836169.xml'
p3488
sa(dp3489
g3
VNCT00468208.xml
p3490
sg5
S'24323392'
p3491
sg7
S'24323392.xml'
p3492
sa(dp3493
g3
VNCT00468312.xml
p3494
sg5
S'20434199'
p3495
sg7
S'20434199.xml'
p3496
sa(dp3497
g3
VNCT00468481.xml
p3498
sg5
S'22067790'
p3499
sg7
S'22067790.xml'
p3500
sa(dp3501
g3
VNCT00468676.xml
p3502
sg5
S'21190455'
p3503
sg7
S'21190455.xml'
p3504
sa(dp3505
g3
VNCT00468819.xml
p3506
sg5
S'19858730'
p3507
sg7
S'19858730.xml'
p3508
sa(dp3509
g3
VNCT00469508.xml
p3510
sg5
S'20092966'
p3511
sg7
S'20092966.xml'
p3512
sa(dp3513
g3
VNCT00469833.xml
p3514
sg5
S'24092826'
p3515
sg7
S'24092826.xml'
p3516
sa(dp3517
g3
VNCT00470158.xml
p3518
sg5
S'19904293'
p3519
sg7
S'19904293.xml'
p3520
sa(dp3521
g3
VNCT00470275.xml
p3522
sg5
S'18989890'
p3523
sg7
S'18989890.xml'
p3524
sa(dp3525
g3
VNCT00470301.xml
p3526
sg5
S'24068539'
p3527
sg7
S'24068539.xml'
p3528
sa(dp3529
g3
VNCT00470626.xml
p3530
sg5
S'19875061'
p3531
sg7
S'19875061.xml'
p3532
sa(dp3533
g3
VNCT00472303.xml
p3534
sg5
S'25054392'
p3535
sg7
S'25054392.xml'
p3536
sa(dp3537
g3
VNCT00474058.xml
p3538
sg5
S'21790503'
p3539
sg7
S'21790503.xml'
p3540
sa(dp3541
g3
VNCT00474201.xml
p3542
sg5
S'19648824'
p3543
sg7
S'19648824.xml'
p3544
sa(dp3545
g3
VNCT00474487.xml
p3546
sg5
S'20655261'
p3547
sg7
S'20655261.xml'
p3548
sa(dp3549
g3
VNCT00474526.xml
p3550
sg5
S'22094635'
p3551
sg7
S'22094635.xml'
p3552
sa(dp3553
g3
VNCT00474630.xml
p3554
sg5
S'24144653'
p3555
sg7
S'24144653.xml'
p3556
sa(dp3557
g3
VNCT00475241.xml
p3558
sg5
S'23696427'
p3559
sg7
S'23696427.xml'
p3560
sa(dp3561
g3
VNCT00475501.xml
p3562
sg5
S'24012740'
p3563
sg7
S'24012740.xml'
p3564
sa(dp3565
g3
VNCT00476242.xml
p3566
sg5
S'21715107'
p3567
sg7
S'21715107.xml'
p3568
sa(dp3569
g3
VNCT00476476.xml
p3570
sg5
S'22750258'
p3571
sg7
S'22750258.xml'
p3572
sa(dp3573
g3
VNCT00476593.xml
p3574
sg5
S'20465801'
p3575
sg7
S'20465801.xml'
p3576
sa(dp3577
g3
VNCT00476957.xml
p3578
sg5
S'22951082'
p3579
sg7
S'22951082.xml'
p3580
sa(dp3581
g3
VNCT00477152.xml
p3582
sg5
S'19805455'
p3583
sg7
S'19805455.xml'
p3584
sa(dp3585
g3
VNCT00477386.xml
p3586
sg5
S'22549947'
p3587
sg7
S'22549947.xml'
p3588
sa(dp3589
g3
VNCT00477685.xml
p3590
sg5
S'17122118'
p3591
sg7
S'17122118.xml'
p3592
sa(dp3593
g3
VNCT00478218.xml
p3594
sg5
S'21630308'
p3595
sg7
S'21630308.xml'
p3596
sa(dp3597
g3
VNCT00479388.xml
p3598
sg5
S'20518948'
p3599
sg7
S'20518948.xml'
p3600
sa(dp3601
g3
VNCT00480532.xml
p3602
sg5
S'20502283'
p3603
sg7
S'20502283.xml'
p3604
sa(dp3605
g3
VNCT00481065.xml
p3606
sg5
S'21606530'
p3607
sg7
S'21606530.xml'
p3608
sa(dp3609
g3
VNCT00481507.xml
p3610
sg5
S'19652108'
p3611
sg7
S'19652108.xml'
p3612
sa(dp3613
g3
VNCT00482729.xml
p3614
sg5
S'21410627'
p3615
sg7
S'21410627.xml'
p3616
sa(dp3617
g3
VNCT00483262.xml
p3618
sg5
S'21345726'
p3619
sg7
S'21345726.xml'
p3620
sa(dp3621
g3
VNCT00483652.xml
p3622
sg5
S'20976768'
p3623
sg7
S'20976768.xml'
p3624
sa(dp3625
g3
VNCT00486330.xml
p3626
sg5
S'19726139'
p3627
sg7
S'19726139.xml'
p3628
sa(dp3629
g3
VNCT00486525.xml
p3630
sg5
S'24470004'
p3631
sg7
S'24470004.xml'
p3632
sa(dp3633
g3
VNCT00486837.xml
p3634
sg5
S'17050563'
p3635
sg7
S'17050563.xml'
p3636
sa(dp3637
g3
VNCT00487240.xml
p3638
sg5
S'20536953'
p3639
sg7
S'20536953.xml'
p3640
sa(dp3641
g3
VNCT00487695.xml
p3642
sg5
S'19559419'
p3643
sg7
S'19559419.xml'
p3644
sa(dp3645
g3
VNCT00488293.xml
p3646
sg5
S'23666440'
p3647
sg7
S'23666440.xml'
p3648
sa(dp3649
g3
VNCT00488592.xml
p3650
sg5
S'21134985'
p3651
sg7
S'21134985.xml'
p3652
sa(dp3653
g3
VNCT00488683.xml
p3654
sg5
S'23566945'
p3655
sg7
S'23566945.xml'
p3656
sa(dp3657
g3
VNCT00489268.xml
p3658
sg5
S'17258973'
p3659
sg7
S'17258973.xml'
p3660
sa(dp3661
g3
VNCT00489489.xml
p3662
sg5
S'22622860'
p3663
sg7
S'22622860.xml'
p3664
sa(dp3665
g3
VNCT00490477.xml
p3666
sg5
S'18463848'
p3667
sg7
S'18463848.xml'
p3668
sa(dp3669
g3
VNCT00490698.xml
p3670
sg5
S'21958521'
p3671
sg7
S'21958521.xml'
p3672
sa(dp3673
g3
VNCT00490919.xml
p3674
sg5
S'21945130'
p3675
sg7
S'21945130.xml'
p3676
sa(dp3677
g3
VNCT00491504.xml
p3678
sg5
S'21067660'
p3679
sg7
S'21067660.xml'
p3680
sa(dp3681
g3
VNCT00492024.xml
p3682
sg5
S'20422704'
p3683
sg7
S'20422704.xml'
p3684
sa(dp3685
g3
VNCT00492063.xml
p3686
sg5
S'19673651'
p3687
sg7
S'19673651.xml'
p3688
sa(dp3689
g3
VNCT00492297.xml
p3690
sg5
S'21750549'
p3691
sg7
S'21750549.xml'
p3692
sa(dp3693
g3
VNCT00492583.xml
p3694
sg5
S'20216564'
p3695
sg7
S'20216564.xml'
p3696
sa(dp3697
g3
VNCT00492726.xml
p3698
sg5
S'23153963'
p3699
sg7
S'23153963.xml'
p3700
sa(dp3701
g3
VNCT00492752.xml
p3702
sg5
S'19095497'
p3703
sg7
S'19095497.xml'
p3704
sa(dp3705
g3
VNCT00493012.xml
p3706
sg5
S'19321573'
p3707
sg7
S'19321573.xml'
p3708
sa(dp3709
g3
VNCT00493220.xml
p3710
sg5
S'19947907'
p3711
sg7
S'19947907.xml'
p3712
sa(dp3713
g3
VNCT00493285.xml
p3714
sg5
S'21926667'
p3715
sg7
S'21926667.xml'
p3716
sa(dp3717
g3
VNCT00494143.xml
p3718
sg5
S'22100728'
p3719
sg7
S'22100728.xml'
p3720
sa(dp3721
g3
VNCT00494299.xml
p3722
sg5
S'21664811'
p3723
sg7
S'21664811.xml'
p3724
sa(dp3725
g3
VNCT00494871.xml
p3726
sg5
S'22664783'
p3727
sg7
S'22664783.xml'
p3728
sa(dp3729
g3
VNCT00495794.xml
p3730
sg5
S'20939913'
p3731
sg7
S'20939913.xml'
p3732
sa(dp3733
g3
VNCT00496262.xml
p3734
sg5
S'19804533'
p3735
sg7
S'19804533.xml'
p3736
sa(dp3737
g3
VNCT00496626.xml
p3738
sg5
S'22433961'
p3739
sg7
S'22433961.xml'
p3740
sa(dp3741
g3
VNCT00497055.xml
p3742
sg5
S'23186131'
p3743
sg7
S'23186131.xml'
p3744
sa(dp3745
g3
VNCT00497081.xml
p3746
sg5
S'22065532'
p3747
sg7
S'22065532.xml'
p3748
sa(dp3749
g3
VNCT00497198.xml
p3750
sg5
S'20047620'
p3751
sg7
S'20047620.xml'
p3752
sa(dp3753
g3
VNCT00498186.xml
p3754
sg5
S'18753003'
p3755
sg7
S'18753003.xml'
p3756
sa(dp3757
g3
VNCT00498628.xml
p3758
sg5
S'21950727'
p3759
sg7
S'21950727.xml'
p3760
sa(dp3761
g3
VNCT00499122.xml
p3762
sg5
S'22138748'
p3763
sg7
S'22138748.xml'
p3764
sa(dp3765
g3
VNCT00499863.xml
p3766
sg5
S'20625364'
p3767
sg7
S'20625364.xml'
p3768
sa(dp3769
g3
VNCT00500071.xml
p3770
sg5
S'20035583'
p3771
sg7
S'20035583.xml'
p3772
sa(dp3773
g3
VNCT00500110.xml
p3774
sg5
S'19012911'
p3775
sg7
S'19012911.xml'
p3776
sa(dp3777
g3
VNCT00500149.xml
p3778
sg5
S'19508731'
p3779
sg7
S'19508731.xml'
p3780
sa(dp3781
g3
VNCT00500656.xml
p3782
sg5
S'17073887'
p3783
sg7
S'17073887.xml'
p3784
sa(dp3785
g3
VNCT00500682.xml
p3786
sg5
S'25349205'
p3787
sg7
S'25349205.xml'
p3788
sa(dp3789
g3
VNCT00501046.xml
p3790
sg5
S'25349205'
p3791
sg7
S'25349205.xml'
p3792
sa(dp3793
g3
VNCT00501293.xml
p3794
sg5
S'20973707'
p3795
sg7
S'20973707.xml'
p3796
sa(dp3797
g3
VNCT00501644.xml
p3798
sg5
S'19264351'
p3799
sg7
S'19264351.xml'
p3800
sa(dp3801
g3
VNCT00501891.xml
p3802
sg5
S'21792866'
p3803
sg7
S'21792866.xml'
p3804
sa(dp3805
g3
VNCT00502944.xml
p3806
sg5
S'18678842'
p3807
sg7
S'18678842.xml'
p3808
sa(dp3809
g3
VNCT00503906.xml
p3810
sg5
S'20585851'
p3811
sg7
S'20585851.xml'
p3812
sa(dp3813
g3
VNCT00504504.xml
p3814
sg5
S'22371887'
p3815
sg7
S'22371887.xml'
p3816
sa(dp3817
g3
VNCT00506285.xml
p3818
sg5
S'22100691'
p3819
sg7
S'22100691.xml'
p3820
sa(dp3821
g3
VNCT00507455.xml
p3822
sg5
S'22831853'
p3823
sg7
S'22831853.xml'
p3824
sa(dp3825
g3
VNCT00507546.xml
p3826
sg5
S'24090266'
p3827
sg7
S'24090266.xml'
p3828
sa(dp3829
g3
VNCT00508027.xml
p3830
sg5
S'21477202'
p3831
sg7
S'21477202.xml'
p3832
sa(dp3833
g3
VNCT00508755.xml
p3834
sg5
S'19165689'
p3835
sg7
S'19165689.xml'
p3836
sa(dp3837
g3
VNCT00508924.xml
p3838
sg5
S'20226548'
p3839
sg7
S'20226548.xml'
p3840
sa(dp3841
g3
VNCT00509236.xml
p3842
sg5
S'23352379'
p3843
sg7
S'23352379.xml'
p3844
sa(dp3845
g3
VNCT00509262.xml
p3846
sg5
S'23248197'
p3847
sg7
S'23248197.xml'
p3848
sa(dp3849
g3
VNCT00510484.xml
p3850
sg5
S'19815466'
p3851
sg7
S'19815466.xml'
p3852
sa(dp3853
g3
VNCT00510952.xml
p3854
sg5
S'20920045'
p3855
sg7
S'20920045.xml'
p3856
sa(dp3857
g3
VNCT00511108.xml
p3858
sg5
S'23782502'
p3859
sg7
S'23782502.xml'
p3860
sa(dp3861
g3
VNCT00511199.xml
p3862
sg5
S'21995590'
p3863
sg7
S'21995590.xml'
p3864
sa(dp3865
g3
VNCT00511342.xml
p3866
sg5
S'22762147'
p3867
sg7
S'22762147.xml'
p3868
sa(dp3869
g3
VNCT00511355.xml
p3870
sg5
S'22066891'
p3871
sg7
S'22066891.xml'
p3872
sa(dp3873
g3
VNCT00511433.xml
p3874
sg5
S'20695770'
p3875
sg7
S'20695770.xml'
p3876
sa(dp3877
g3
VNCT00512096.xml
p3878
sg5
S'20625118'
p3879
sg7
S'20625118.xml'
p3880
sa(dp3881
g3
VNCT00512902.xml
p3882
sg5
S'21769849'
p3883
sg7
S'21769849.xml'
p3884
sa(dp3885
g3
VNCT00515073.xml
p3886
sg5
S'23385150'
p3887
sg7
S'23385150.xml'
p3888
sa(dp3889
g3
VNCT00515177.xml
p3890
sg5
S'21397868'
p3891
sg7
S'21397868.xml'
p3892
sa(dp3893
g3
VNCT00515541.xml
p3894
sg5
S'21621252'
p3895
sg7
S'21621252.xml'
p3896
sa(dp3897
g3
VNCT00515671.xml
p3898
sg5
S'23815174'
p3899
sg7
S'23815174.xml'
p3900
sa(dp3901
g3
VNCT00515827.xml
p3902
sg5
S'20711481'
p3903
sg7
S'20711481.xml'
p3904
sa(dp3905
g3
VNCT00518180.xml
p3906
sg5
S'20189491'
p3907
sg7
S'20189491.xml'
p3908
sa(dp3909
g3
VNCT00518622.xml
p3910
sg5
S'23747481'
p3911
sg7
S'23747481.xml'
p3912
sa(dp3913
g3
VNCT00518713.xml
p3914
sg5
S'21956725'
p3915
sg7
S'21956725.xml'
p3916
sa(dp3917
g3
VNCT00519077.xml
p3918
sg5
S'22513208'
p3919
sg7
S'22513208.xml'
p3920
sa(dp3921
g3
VNCT00519285.xml
p3922
sg5
S'23742877'
p3923
sg7
S'23742877.xml'
p3924
sa(dp3925
g3
VNCT00519779.xml
p3926
sg5
S'21784145'
p3927
sg7
S'21784145.xml'
p3928
sa(dp3929
g3
VNCT00520494.xml
p3930
sg5
S'21932110'
p3931
sg7
S'21932110.xml'
p3932
sa(dp3933
g3
VNCT00521352.xml
p3934
sg5
S'9821564'
p3935
sg7
S'9821564.xml'
p3936
sa(dp3937
g3
VNCT00522275.xml
p3938
sg5
S'22372628'
p3939
sg7
S'22372628.xml'
p3940
sa(dp3941
g3
VNCT00522873.xml
p3942
sg5
S'23531117'
p3943
sg7
S'23531117.xml'
p3944
sa(dp3945
g3
VNCT00522951.xml
p3946
sg5
S'21467949'
p3947
sg7
S'21467949.xml'
p3948
sa(dp3949
g3
VNCT00523237.xml
p3950
sg5
S'19819183'
p3951
sg7
S'19819183.xml'
p3952
sa(dp3953
g3
VNCT00523549.xml
p3954
sg5
S'19996069'
p3955
sg7
S'19996069.xml'
p3956
sa(dp3957
g3
VNCT00524342.xml
p3958
sg5
S'21833452'
p3959
sg7
S'21833452.xml'
p3960
sa(dp3961
g3
VNCT00524745.xml
p3962
sg5
S'21486975'
p3963
sg7
S'21486975.xml'
p3964
sa(dp3965
g3
VNCT00525421.xml
p3966
sg5
S'21907450'
p3967
sg7
S'21907450.xml'
p3968
sa(dp3969
g3
VNCT00525525.xml
p3970
sg5
S'24637230'
p3971
sg7
S'24637230.xml'
p3972
sa(dp3973
g3
VNCT00526188.xml
p3974
sg5
S'24322746'
p3975
sg7
S'24322746.xml'
p3976
sa(dp3977
g3
VNCT00529659.xml
p3978
sg5
S'23732550'
p3979
sg7
S'23732550.xml'
p3980
sa(dp3981
g3
VNCT00530335.xml
p3982
sg5
S'21265936'
p3983
sg7
S'21265936.xml'
p3984
sa(dp3985
g3
VNCT00530712.xml
p3986
sg5
S'23642924'
p3987
sg7
S'23642924.xml'
p3988
sa(dp3989
g3
VNCT00530764.xml
p3990
sg5
S'22483680'
p3991
sg7
S'22483680.xml'
p3992
sa(dp3993
g3
VNCT00531843.xml
p3994
sg5
S'19854398'
p3995
sg7
S'19854398.xml'
p3996
sa(dp3997
g3
VNCT00532779.xml
p3998
sg5
S'20673995'
p3999
sg7
S'20673995.xml'
p4000
sa(dp4001
g3
VNCT00532935.xml
p4002
sg5
S'22059736'
p4003
sg7
S'22059736.xml'
p4004
sa(dp4005
g3
VNCT00535405.xml
p4006
sg5
S'21029821'
p4007
sg7
S'21029821.xml'
p4008
sa(dp4009
g3
VNCT00535496.xml
p4010
sg5
S'20523215'
p4011
sg7
S'20523215.xml'
p4012
sa(dp4013
g3
VNCT00535730.xml
p4014
sg5
S'20980796'
p4015
sg7
S'20980796.xml'
p4016
sa(dp4017
g3
VNCT00536172.xml
p4018
sg5
S'23788218'
p4019
sg7
S'23788218.xml'
p4020
sa(dp4021
g3
VNCT00536263.xml
p4022
sg5
S'25200354'
p4023
sg7
S'25200354.xml'
p4024
sa(dp4025
g3
VNCT00536510.xml
p4026
sg5
S'21291812'
p4027
sg7
S'21291812.xml'
p4028
sa(dp4029
g3
VNCT00537680.xml
p4030
sg5
S'21779958'
p4031
sg7
S'21779958.xml'
p4032
sa(dp4033
g3
VNCT00537810.xml
p4034
sg5
S'24857821'
p4035
sg7
S'24857821.xml'
p4036
sa(dp4037
g3
VNCT00538512.xml
p4038
sg5
S'19776407'
p4039
sg7
S'19776407.xml'
p4040
sa(dp4041
g3
VNCT00538850.xml
p4042
sg5
S'22480131'
p4043
sg7
S'22480131.xml'
p4044
sa(dp4045
g3
VNCT00539864.xml
p4046
sg5
S'21277410'
p4047
sg7
S'21277410.xml'
p4048
sa(dp4049
g3
VNCT00540514.xml
p4050
sg5
S'22547591'
p4051
sg7
S'22547591.xml'
p4052
sa(dp4053
g3
VNCT00541450.xml
p4054
sg5
S'21849007'
p4055
sg7
S'21849007.xml'
p4056
sa(dp4057
g3
VNCT00542178.xml
p4058
sg5
S'20587587'
p4059
sg7
S'20587587.xml'
p4060
sa(dp4061
g3
VNCT00542997.xml
p4062
sg5
S'21705277'
p4063
sg7
S'21705277.xml'
p4064
sa(dp4065
g3
VNCT00544544.xml
p4066
sg5
S'19956089'
p4067
sg7
S'19956089.xml'
p4068
sa(dp4069
g3
VNCT00544817.xml
p4070
sg5
S'20564147'
p4071
sg7
S'20564147.xml'
p4072
sa(dp4073
g3
VNCT00545064.xml
p4074
sg5
S'20668720'
p4075
sg7
S'20668720.xml'
p4076
sa(dp4077
g3
VNCT00545623.xml
p4078
sg5
S'21705396'
p4079
sg7
S'21705396.xml'
p4080
sa(dp4081
g3
VNCT00545766.xml
p4082
sg5
S'20158340'
p4083
sg7
S'20158340.xml'
p4084
sa(dp4085
g3
VNCT00546052.xml
p4086
sg5
S'20147971'
p4087
sg7
S'20147971.xml'
p4088
sa(dp4089
g3
VNCT00546871.xml
p4090
sg5
S'21424824'
p4091
sg7
S'21424824.xml'
p4092
sa(dp4093
g3
VNCT00549640.xml
p4094
sg5
S'21276244'
p4095
sg7
S'21276244.xml'
p4096
sa(dp4097
g3
VNCT00549718.xml
p4098
sg5
S'23421963'
p4099
sg7
S'23421963.xml'
p4100
sa(dp4101
g3
VNCT00550550.xml
p4102
sg5
S'21211642'
p4103
sg7
S'21211642.xml'
p4104
sa(dp4105
g3
VNCT00550589.xml
p4106
sg5
S'23032420'
p4107
sg7
S'23032420.xml'
p4108
sa(dp4109
g3
VNCT00550745.xml
p4110
sg5
S'22048110'
p4111
sg7
S'22048110.xml'
p4112
sa(dp4113
g3
VNCT00552058.xml
p4114
sg5
S'21642014'
p4115
sg7
S'21642014.xml'
p4116
sa(dp4117
g3
VNCT00552110.xml
p4118
sg5
S'23562197'
p4119
sg7
S'23562197.xml'
p4120
sa(dp4121
g3
VNCT00552513.xml
p4122
sg5
S'19458363'
p4123
sg7
S'19458363.xml'
p4124
sa(dp4125
g3
VNCT00552760.xml
p4126
sg5
S'22963894'
p4127
sg7
S'22963894.xml'
p4128
sa(dp4129
g3
VNCT00553501.xml
p4130
sg5
S'23922187'
p4131
sg7
S'23922187.xml'
p4132
sa(dp4133
g3
VNCT00554294.xml
p4134
sg5
S'19336356'
p4135
sg7
S'19336356.xml'
p4136
sa(dp4137
g3
VNCT00554801.xml
p4138
sg5
S'23341276'
p4139
sg7
S'23341276.xml'
p4140
sa(dp4141
g3
VNCT00555997.xml
p4142
sg5
S'23290327'
p4143
sg7
S'23290327.xml'
p4144
sa(dp4145
g3
VNCT00556933.xml
p4146
sg5
S'25083614'
p4147
sg7
S'25083614.xml'
p4148
sa(dp4149
g3
VNCT00557076.xml
p4150
sg5
S'23341285'
p4151
sg7
S'23341285.xml'
p4152
sa(dp4153
g3
VNCT00557245.xml
p4154
sg5
S'22784037'
p4155
sg7
S'22784037.xml'
p4156
sa(dp4157
g3
VNCT00558753.xml
p4158
sg5
S'19910619'
p4159
sg7
S'19910619.xml'
p4160
sa(dp4161
g3
VNCT00560313.xml
p4162
sg5
S'21177912'
p4163
sg7
S'21177912.xml'
p4164
sa(dp4165
g3
VNCT00560950.xml
p4166
sg5
S'21860256'
p4167
sg7
S'21860256.xml'
p4168
sa(dp4169
g3
VNCT00561977.xml
p4170
sg5
S'19359142'
p4171
sg7
S'19359142.xml'
p4172
sa(dp4173
g3
VNCT00562159.xml
p4174
sg5
S'21211643'
p4175
sg7
S'21211643.xml'
p4176
sa(dp4177
g3
VNCT00564889.xml
p4178
sg5
S'22504925'
p4179
sg7
S'22504925.xml'
p4180
sa(dp4181
g3
VNCT00565084.xml
p4182
sg5
S'20175977'
p4183
sg7
S'20175977.xml'
p4184
sa(dp4185
g3
VNCT00565136.xml
p4186
sg5
S'24763157'
p4187
sg7
S'24763157.xml'
p4188
sa(dp4189
g3
VNCT00565266.xml
p4190
sg5
S'20979471'
p4191
sg7
S'20979471.xml'
p4192
sa(dp4193
g3
VNCT00567164.xml
p4194
sg5
S'22281416'
p4195
sg7
S'22281416.xml'
p4196
sa(dp4197
g3
VNCT00567255.xml
p4198
sg5
S'23408728'
p4199
sg7
S'23408728.xml'
p4200
sa(dp4201
g3
VNCT00567320.xml
p4202
sg5
S'20716302'
p4203
sg7
S'20716302.xml'
p4204
sa(dp4205
g3
VNCT00567892.xml
p4206
sg5
S'21422304'
p4207
sg7
S'21422304.xml'
p4208
sa(dp4209
g3
VNCT00569582.xml
p4210
sg5
S'22466348'
p4211
sg7
S'22466348.xml'
p4212
sa(dp4213
g3
VNCT00569673.xml
p4214
sg5
S'21144560'
p4215
sg7
S'21144560.xml'
p4216
sa(dp4217
g3
VNCT00570310.xml
p4218
sg5
S'21185118'
p4219
sg7
S'21185118.xml'
p4220
sa(dp4221
g3
VNCT00570505.xml
p4222
sg5
S'23637029'
p4223
sg7
S'23637029.xml'
p4224
sa(dp4225
g3
VNCT00570921.xml
p4226
sg5
S'24327334'
p4227
sg7
S'24327334.xml'
p4228
sa(dp4229
g3
VNCT00571038.xml
p4230
sg5
S'24755206'
p4231
sg7
S'24755206.xml'
p4232
sa(dp4233
g3
VNCT00571649.xml
p4234
sg5
S'21359646'
p4235
sg7
S'21359646.xml'
p4236
sa(dp4237
g3
VNCT00571948.xml
p4238
sg5
S'19193660'
p4239
sg7
S'19193660.xml'
p4240
sa(dp4241
g3
VNCT00571961.xml
p4242
sg5
S'20672450'
p4243
sg7
S'20672450.xml'
p4244
sa(dp4245
g3
VNCT00571974.xml
p4246
sg5
S'22106236'
p4247
sg7
S'22106236.xml'
p4248
sa(dp4249
g3
VNCT00572832.xml
p4250
sg5
S'20629576'
p4251
sg7
S'20629576.xml'
p4252
sa(dp4253
g3
VNCT00572910.xml
p4254
sg5
S'22837094'
p4255
sg7
S'22837094.xml'
p4256
sa(dp4257
g3
VNCT00573183.xml
p4258
sg5
S'22657748'
p4259
sg7
S'22657748.xml'
p4260
sa(dp4261
g3
VNCT00573248.xml
p4262
sg5
S'20025370'
p4263
sg7
S'20025370.xml'
p4264
sa(dp4265
g3
VNCT00573261.xml
p4266
sg5
S'21346609'
p4267
sg7
S'21346609.xml'
p4268
sa(dp4269
g3
VNCT00573313.xml
p4270
sg5
S'20561703'
p4271
sg7
S'20561703.xml'
p4272
sa(dp4273
g3
VNCT00573443.xml
p4274
sg5
S'20839238'
p4275
sg7
S'20839238.xml'
p4276
sa(dp4277
g3
VNCT00573508.xml
p4278
sg5
S'19930331'
p4279
sg7
S'19930331.xml'
p4280
sa(dp4281
g3
VNCT00573859.xml
p4282
sg5
S'21356232'
p4283
sg7
S'21356232.xml'
p4284
sa(dp4285
g3
VNCT00575042.xml
p4286
sg5
S'21083674'
p4287
sg7
S'21083674.xml'
p4288
sa(dp4289
g3
VNCT00575146.xml
p4290
sg5
S'24728273'
p4291
sg7
S'24728273.xml'
p4292
sa(dp4293
g3
VNCT00575510.xml
p4294
sg5
S'23730719'
p4295
sg7
S'23730719.xml'
p4296
sa(dp4297
g3
VNCT00575887.xml
p4298
sg5
S'20878446'
p4299
sg7
S'20878446.xml'
p4300
sa(dp4301
g3
VNCT00576147.xml
p4302
sg5
S'20568959'
p4303
sg7
S'20568959.xml'
p4304
sa(dp4305
g3
VNCT00576420.xml
p4306
sg5
S'21514114'
p4307
sg7
S'21514114.xml'
p4308
sa(dp4309
g3
VNCT00576576.xml
p4310
sg5
S'21788584'
p4311
sg7
S'21788584.xml'
p4312
sa(dp4313
g3
VNCT00576693.xml
p4314
sg5
S'22977278'
p4315
sg7
S'22977278.xml'
p4316
sa(dp4317
g3
VNCT00577135.xml
p4318
sg5
S'21366472'
p4319
sg7
S'21366472.xml'
p4320
sa(dp4321
g3
VNCT00577824.xml
p4322
sg5
S'24843486'
p4323
sg7
S'24843486.xml'
p4324
sa(dp4325
g3
VNCT00578214.xml
p4326
sg5
S'21238825'
p4327
sg7
S'21238825.xml'
p4328
sa(dp4329
g3
VNCT00578318.xml
p4330
sg5
S'22984337'
p4331
sg7
S'22984337.xml'
p4332
sa(dp4333
g3
VNCT00578552.xml
p4334
sg5
S'20081039'
p4335
sg7
S'20081039.xml'
p4336
sa(dp4337
g3
VNCT00579098.xml
p4338
sg5
S'21920481'
p4339
sg7
S'21920481.xml'
p4340
sa(dp4341
g3
VNCT00580034.xml
p4342
sg5
S'18850014'
p4343
sg7
S'18850014.xml'
p4344
sa(dp4345
g3
VNCT00580398.xml
p4346
sg5
S'21512406'
p4347
sg7
S'21512406.xml'
p4348
sa(dp4349
g3
VNCT00580606.xml
p4350
sg5
S'23265698'
p4351
sg7
S'23265698.xml'
p4352
sa(dp4353
g3
VNCT00582517.xml
p4354
sg5
S'12861201'
p4355
sg7
S'12861201.xml'
p4356
sa(dp4357
g3
VNCT00582907.xml
p4358
sg5
S'23070486'
p4359
sg7
S'23070486.xml'
p4360
sa(dp4361
g3
VNCT00582972.xml
p4362
sg5
S'20578215'
p4363
sg7
S'20578215.xml'
p4364
sa(dp4365
g3
VNCT00583219.xml
p4366
sg5
S'19648387'
p4367
sg7
S'19648387.xml'
p4368
sa(dp4369
g3
VNCT00583947.xml
p4370
sg5
S'21584948'
p4371
sg7
S'21584948.xml'
p4372
sa(dp4373
g3
VNCT00584857.xml
p4374
sg5
S'24724218'
p4375
sg7
S'24724218.xml'
p4376
sa(dp4377
g3
VNCT00584987.xml
p4378
sg5
S'21377716'
p4379
sg7
S'21377716.xml'
p4380
sa(dp4381
g3
VNCT00585169.xml
p4382
sg5
S'20721537'
p4383
sg7
S'20721537.xml'
p4384
sa(dp4385
g3
VNCT00585637.xml
p4386
sg5
S'24657333'
p4387
sg7
S'24657333.xml'
p4388
sa(dp4389
g3
VNCT00585689.xml
p4390
sg5
S'23706253'
p4391
sg7
S'23706253.xml'
p4392
sa(dp4393
g3
VNCT00586196.xml
p4394
sg5
S'22091574'
p4395
sg7
S'22091574.xml'
p4396
sa(dp4397
g3
VNCT00586495.xml
p4398
sg5
S'21481133'
p4399
sg7
S'21481133.xml'
p4400
sa(dp4401
g3
VNCT00586690.xml
p4402
sg5
S'20188202'
p4403
sg7
S'20188202.xml'
p4404
sa(dp4405
g3
VNCT00586703.xml
p4406
sg5
S'20188202'
p4407
sg7
S'20188202.xml'
p4408
sa(dp4409
g3
VNCT00587041.xml
p4410
sg5
S'20736987'
p4411
sg7
S'20736987.xml'
p4412
sa(dp4413
g3
VNCT00587639.xml
p4414
sg5
S'21951987'
p4415
sg7
S'21951987.xml'
p4416
sa(dp4417
g3
VNCT00587678.xml
p4418
sg5
S'21570685'
p4419
sg7
S'21570685.xml'
p4420
sa(dp4421
g3
VNCT00587834.xml
p4422
sg5
S'21513473'
p4423
sg7
S'21513473.xml'
p4424
sa(dp4425
g3
VNCT00587990.xml
p4426
sg5
S'24565698'
p4427
sg7
S'24565698.xml'
p4428
sa(dp4429
g3
VNCT00588380.xml
p4430
sg5
S'20805279'
p4431
sg7
S'20805279.xml'
p4432
sa(dp4433
g3
VNCT00589108.xml
p4434
sg5
S'22437996'
p4435
sg7
S'22437996.xml'
p4436
sa(dp4437
g3
VNCT00589277.xml
p4438
sg5
S'20056957'
p4439
sg7
S'20056957.xml'
p4440
sa(dp4441
g3
VNCT00589290.xml
p4442
sg5
S'21502553'
p4443
sg7
S'21502553.xml'
p4444
sa(dp4445
g3
VNCT00589628.xml
p4446
sg5
S'16461435'
p4447
sg7
S'16461435.xml'
p4448
sa(dp4449
g3
VNCT00589888.xml
p4450
sg5
S'20923960'
p4451
sg7
S'20923960.xml'
p4452
sa(dp4453
g3
VNCT00590226.xml
p4454
sg5
S'19017758'
p4455
sg7
S'19017758.xml'
p4456
sa(dp4457
g3
VNCT00590772.xml
p4458
sg5
S'18430310'
p4459
sg7
S'18430310.xml'
p4460
sa(dp4461
g3
VNCT00590863.xml
p4462
sg5
S'21536692'
p4463
sg7
S'21536692.xml'
p4464
sa(dp4465
g3
VNCT00591214.xml
p4466
sg5
S'22239508'
p4467
sg7
S'22239508.xml'
p4468
sa(dp4469
g3
VNCT00591578.xml
p4470
sg5
S'21762358'
p4471
sg7
S'21762358.xml'
p4472
sa(dp4473
g3
VNCT00591721.xml
p4474
sg5
S'21561960'
p4475
sg7
S'21561960.xml'
p4476
sa(dp4477
g3
VNCT00591734.xml
p4478
sg5
S'20564157'
p4479
sg7
S'20564157.xml'
p4480
sa(dp4481
g3
VNCT00593606.xml
p4482
sg5
S'21831297'
p4483
sg7
S'21831297.xml'
p4484
sa(dp4485
g3
VNCT00594165.xml
p4486
sg5
S'22326237'
p4487
sg7
S'22326237.xml'
p4488
sa(dp4489
g3
VNCT00594399.xml
p4490
sg5
S'22059803'
p4491
sg7
S'22059803.xml'
p4492
sa(dp4493
g3
VNCT00594464.xml
p4494
sg5
S'20535621'
p4495
sg7
S'20535621.xml'
p4496
sa(dp4497
g3
VNCT00594880.xml
p4498
sg5
S'23105144'
p4499
sg7
S'23105144.xml'
p4500
sa(dp4501
g3
VNCT00595075.xml
p4502
sg5
S'21206545'
p4503
sg7
S'21206545.xml'
p4504
sa(dp4505
g3
VNCT00595361.xml
p4506
sg5
S'10903223'
p4507
sg7
S'10903223.xml'
p4508
sa(dp4509
g3
VNCT00595764.xml
p4510
sg5
S'23260506'
p4511
sg7
S'23260506.xml'
p4512
sa(dp4513
g3
VNCT00595868.xml
p4514
sg5
S'21652735'
p4515
sg7
S'21652735.xml'
p4516
sa(dp4517
g3
VNCT00596635.xml
p4518
sg5
S'20929476'
p4519
sg7
S'20929476.xml'
p4520
sa(dp4521
g3
VNCT00596687.xml
p4522
sg5
S'21228246'
p4523
sg7
S'21228246.xml'
p4524
sa(dp4525
g3
VNCT00596817.xml
p4526
sg5
S'22495621'
p4527
sg7
S'22495621.xml'
p4528
sa(dp4529
g3
VNCT00596960.xml
p4530
sg5
S'25040898'
p4531
sg7
S'25040898.xml'
p4532
sa(dp4533
g3
VNCT00597493.xml
p4534
sg5
S'20443129'
p4535
sg7
S'20443129.xml'
p4536
sa(dp4537
g3
VNCT00597584.xml
p4538
sg5
S'23343061'
p4539
sg7
S'23343061.xml'
p4540
sa(dp4541
g3
VNCT00597714.xml
p4542
sg5
S'24269380'
p4543
sg7
S'24269380.xml'
p4544
sa(dp4545
g3
VNCT00597753.xml
p4546
sg5
S'23343061'
p4547
sg7
S'23343061.xml'
p4548
sa(dp4549
g3
VNCT00598273.xml
p4550
sg5
S'23343062'
p4551
sg7
S'23343062.xml'
p4552
sa(dp4553
g3
VNCT00598442.xml
p4554
sg5
S'23343062'
p4555
sg7
S'23343062.xml'
p4556
sa(dp4557
g3
VNCT00599027.xml
p4558
sg5
S'21121983'
p4559
sg7
S'21121983.xml'
p4560
sa(dp4561
g3
VNCT00601458.xml
p4562
sg5
S'21052881'
p4563
sg7
S'21052881.xml'
p4564
sa(dp4565
g3
VNCT00602043.xml
p4566
sg5
S'24170452'
p4567
sg7
S'24170452.xml'
p4568
sa(dp4569
g3
VNCT00602290.xml
p4570
sg5
S'21857219'
p4571
sg7
S'21857219.xml'
p4572
sa(dp4573
g3
VNCT00602927.xml
p4574
sg5
S'20207347'
p4575
sg7
S'20207347.xml'
p4576
sa(dp4577
g3
VNCT00603239.xml
p4578
sg5
S'20977576'
p4579
sg7
S'20977576.xml'
p4580
sa(dp4581
g3
VNCT00603304.xml
p4582
sg5
S'21741692'
p4583
sg7
S'21741692.xml'
p4584
sa(dp4585
g3
VNCT00604162.xml
p4586
sg5
S'19605831'
p4587
sg7
S'19605831.xml'
p4588
sa(dp4589
g3
VNCT00605072.xml
p4590
sg5
S'22412114'
p4591
sg7
S'22412114.xml'
p4592
sa(dp4593
g3
VNCT00605176.xml
p4594
sg5
S'20133013'
p4595
sg7
S'20133013.xml'
p4596
sa(dp4597
g3
VNCT00605202.xml
p4598
sg5
S'19562574'
p4599
sg7
S'19562574.xml'
p4600
sa(dp4601
g3
VNCT00606892.xml
p4602
sg5
S'19693492'
p4603
sg7
S'19693492.xml'
p4604
sa(dp4605
g3
VNCT00607269.xml
p4606
sg5
S'20667681'
p4607
sg7
S'20667681.xml'
p4608
sa(dp4609
g3
VNCT00607672.xml
p4610
sg5
S'22549281'
p4611
sg7
S'22549281.xml'
p4612
sa(dp4613
g3
VNCT00608426.xml
p4614
sg5
S'22394386'
p4615
sg7
S'22394386.xml'
p4616
sa(dp4617
g3
VNCT00608491.xml
p4618
sg5
S'23131078'
p4619
sg7
S'23131078.xml'
p4620
sa(dp4621
g3
VNCT00609167.xml
p4622
sg5
S'19225538'
p4623
sg7
S'19225538.xml'
p4624
sa(dp4625
g3
VNCT00611247.xml
p4626
sg5
S'22052619'
p4627
sg7
S'22052619.xml'
p4628
sa(dp4629
g3
VNCT00611806.xml
p4630
sg5
S'23467813'
p4631
sg7
S'23467813.xml'
p4632
sa(dp4633
g3
VNCT00612313.xml
p4634
sg5
S'24935082'
p4635
sg7
S'24935082.xml'
p4636
sa(dp4637
g3
VNCT00612534.xml
p4638
sg5
S'23271030'
p4639
sg7
S'23271030.xml'
p4640
sa(dp4641
g3
VNCT00613925.xml
p4642
sg5
S'21343767'
p4643
sg7
S'21343767.xml'
p4644
sa(dp4645
g3
VNCT00614198.xml
p4646
sg5
S'20406576'
p4647
sg7
S'20406576.xml'
p4648
sa(dp4649
g3
VNCT00614913.xml
p4650
sg5
S'15508084'
p4651
sg7
S'15508084.xml'
p4652
sa(dp4653
g3
VNCT00615433.xml
p4654
sg5
S'23541189'
p4655
sg7
S'23541189.xml'
p4656
sa(dp4657
g3
VNCT00615550.xml
p4658
sg5
S'21472815'
p4659
sg7
S'21472815.xml'
p4660
sa(dp4661
g3
VNCT00616109.xml
p4662
sg5
S'21512407'
p4663
sg7
S'21512407.xml'
p4664
sa(dp4665
g3
VNCT00616200.xml
p4666
sg5
S'19281859'
p4667
sg7
S'19281859.xml'
p4668
sa(dp4669
g3
VNCT00616759.xml
p4670
sg5
S'19892408'
p4671
sg7
S'19892408.xml'
p4672
sa(dp4673
g3
VNCT00617188.xml
p4674
sg5
S'19239974'
p4675
sg7
S'19239974.xml'
p4676
sa(dp4677
g3
VNCT00618410.xml
p4678
sg5
S'21703101'
p4679
sg7
S'21703101.xml'
p4680
sa(dp4681
g3
VNCT00618839.xml
p4682
sg5
S'19276766'
p4683
sg7
S'19276766.xml'
p4684
sa(dp4685
g3
VNCT00618995.xml
p4686
sg5
S'19833861'
p4687
sg7
S'19833861.xml'
p4688
sa(dp4689
g3
VNCT00619073.xml
p4690
sg5
S'20736449'
p4691
sg7
S'20736449.xml'
p4692
sa(dp4693
g3
VNCT00619359.xml
p4694
sg5
S'21383291'
p4695
sg7
S'21383291.xml'
p4696
sa(dp4697
g3
VNCT00620373.xml
p4698
sg5
S'21045179'
p4699
sg7
S'21045179.xml'
p4700
sa(dp4701
g3
VNCT00620750.xml
p4702
sg5
S'20363090'
p4703
sg7
S'20363090.xml'
p4704
sa(dp4705
g3
VNCT00621296.xml
p4706
sg5
S'23383655'
p4707
sg7
S'23383655.xml'
p4708
sa(dp4709
g3
VNCT00621348.xml
p4710
sg5
S'20668885'
p4711
sg7
S'20668885.xml'
p4712
sa(dp4713
g3
VNCT00621764.xml
p4714
sg5
S'20856164'
p4715
sg7
S'20856164.xml'
p4716
sa(dp4717
g3
VNCT00621985.xml
p4718
sg5
S'20871859'
p4719
sg7
S'20871859.xml'
p4720
sa(dp4721
g3
VNCT00623480.xml
p4722
sg5
S'23528101'
p4723
sg7
S'23528101.xml'
p4724
sa(dp4725
g3
VNCT00623545.xml
p4726
sg5
S'20152707'
p4727
sg7
S'20152707.xml'
p4728
sa(dp4729
g3
VNCT00624195.xml
p4730
sg5
S'24352352'
p4731
sg7
S'24352352.xml'
p4732
sa(dp4733
g3
VNCT00624806.xml
p4734
sg5
S'21756573'
p4735
sg7
S'21756573.xml'
p4736
sa(dp4737
g3
VNCT00625391.xml
p4738
sg5
S'21766228'
p4739
sg7
S'21766228.xml'
p4740
sa(dp4741
g3
VNCT00625404.xml
p4742
sg5
S'22784040'
p4743
sg7
S'22784040.xml'
p4744
sa(dp4745
g3
VNCT00626093.xml
p4746
sg5
S'21315841'
p4747
sg7
S'21315841.xml'
p4748
sa(dp4749
g3
VNCT00626392.xml
p4750
sg5
S'19331435'
p4751
sg7
S'19331435.xml'
p4752
sa(dp4753
g3
VNCT00626782.xml
p4754
sg5
S'25019269'
p4755
sg7
S'25019269.xml'
p4756
sa(dp4757
g3
VNCT00627016.xml
p4758
sg5
S'21224838'
p4759
sg7
S'21224838.xml'
p4760
sa(dp4761
g3
VNCT00628134.xml
p4762
sg5
S'22393908'
p4763
sg7
S'22393908.xml'
p4764
sa(dp4765
g3
VNCT00628628.xml
p4766
sg5
S'22015451'
p4767
sg7
S'22015451.xml'
p4768
sa(dp4769
g3
VNCT00629499.xml
p4770
sg5
S'20658263'
p4771
sg7
S'20658263.xml'
p4772
sa(dp4773
g3
VNCT00630058.xml
p4774
sg5
S'23190247'
p4775
sg7
S'23190247.xml'
p4776
sa(dp4777
g3
VNCT00630331.xml
p4778
sg5
S'20868284'
p4779
sg7
S'20868284.xml'
p4780
sa(dp4781
g3
VNCT00630396.xml
p4782
sg5
S'20705929'
p4783
sg7
S'20705929.xml'
p4784
sa(dp4785
g3
VNCT00630747.xml
p4786
sg5
S'21150784'
p4787
sg7
S'21150784.xml'
p4788
sa(dp4789
g3
VNCT00630877.xml
p4790
sg5
S'19301936'
p4791
sg7
S'19301936.xml'
p4792
sa(dp4793
g3
VNCT00631969.xml
p4794
sg5
S'21883954'
p4795
sg7
S'21883954.xml'
p4796
sa(dp4797
g3
VNCT00632502.xml
p4798
sg5
S'22702508'
p4799
sg7
S'22702508.xml'
p4800
sa(dp4801
g3
VNCT00632931.xml
p4802
sg5
S'19887475'
p4803
sg7
S'19887475.xml'
p4804
sa(dp4805
g3
VNCT00633867.xml
p4806
sg5
S'19605408'
p4807
sg7
S'19605408.xml'
p4808
sa(dp4809
g3
VNCT00635219.xml
p4810
sg5
S'22209361'
p4811
sg7
S'22209361.xml'
p4812
sa(dp4813
g3
VNCT00636077.xml
p4814
sg5
S'20543211'
p4815
sg7
S'20543211.xml'
p4816
sa(dp4817
g3
VNCT00636701.xml
p4818
sg5
S'21766399'
p4819
sg7
S'21766399.xml'
p4820
sa(dp4821
g3
VNCT00637377.xml
p4822
sg5
S'23084240'
p4823
sg7
S'23084240.xml'
p4824
sa(dp4825
g3
VNCT00638651.xml
p4826
sg5
S'19597914'
p4827
sg7
S'19597914.xml'
p4828
sa(dp4829
g3
VNCT00639457.xml
p4830
sg5
S'20959530'
p4831
sg7
S'20959530.xml'
p4832
sa(dp4833
g3
VNCT00639769.xml
p4834
sg5
S'18484593'
p4835
sg7
S'18484593.xml'
p4836
sa(dp4837
g3
VNCT00641056.xml
p4838
sg5
S'22357185'
p4839
sg7
S'22357185.xml'
p4840
sa(dp4841
g3
VNCT00641563.xml
p4842
sg5
S'17056949'
p4843
sg7
S'17056949.xml'
p4844
sa(dp4845
g3
VNCT00641641.xml
p4846
sg5
S'21860347'
p4847
sg7
S'21860347.xml'
p4848
sa(dp4849
g3
VNCT00644059.xml
p4850
sg5
S'21995388'
p4851
sg7
S'21995388.xml'
p4852
sa(dp4853
g3
VNCT00644995.xml
p4854
sg5
S'21414216'
p4855
sg7
S'21414216.xml'
p4856
sa(dp4857
g3
VNCT00645333.xml
p4858
sg5
S'23340294'
p4859
sg7
S'23340294.xml'
p4860
sa(dp4861
g3
VNCT00645411.xml
p4862
sg5
S'22301476'
p4863
sg7
S'22301476.xml'
p4864
sa(dp4865
g3
VNCT00650585.xml
p4866
sg5
S'19581545'
p4867
sg7
S'19581545.xml'
p4868
sa(dp4869
g3
VNCT00652145.xml
p4870
sg5
S'24793028'
p4871
sg7
S'24793028.xml'
p4872
sa(dp4873
g3
VNCT00653861.xml
p4874
sg5
S'19735519'
p4875
sg7
S'19735519.xml'
p4876
sa(dp4877
g3
VNCT00654030.xml
p4878
sg5
S'21150468'
p4879
sg7
S'21150468.xml'
p4880
sa(dp4881
g3
VNCT00654784.xml
p4882
sg5
S'21435876'
p4883
sg7
S'21435876.xml'
p4884
sa(dp4885
g3
VNCT00655551.xml
p4886
sg5
S'22708895'
p4887
sg7
S'22708895.xml'
p4888
sa(dp4889
g3
VNCT00655629.xml
p4890
sg5
S'21883954'
p4891
sg7
S'21883954.xml'
p4892
sa(dp4893
g3
VNCT00655863.xml
p4894
sg5
S'22237690'
p4895
sg7
S'22237690.xml'
p4896
sa(dp4897
g3
VNCT00656175.xml
p4898
sg5
S'22823027'
p4899
sg7
S'22823027.xml'
p4900
sa(dp4901
g3
VNCT00656201.xml
p4902
sg5
S'20347079'
p4903
sg7
S'20347079.xml'
p4904
sa(dp4905
g3
VNCT00656799.xml
p4906
sg5
S'22732111'
p4907
sg7
S'22732111.xml'
p4908
sa(dp4909
g3
VNCT00656851.xml
p4910
sg5
S'22151886'
p4911
sg7
S'22151886.xml'
p4912
sa(dp4913
g3
VNCT00657371.xml
p4914
sg5
S'20018280'
p4915
sg7
S'20018280.xml'
p4916
sa(dp4917
g3
VNCT00658723.xml
p4918
sg5
S'23969113'
p4919
sg7
S'23969113.xml'
p4920
sa(dp4921
g3
VNCT00660179.xml
p4922
sg5
S'23984728'
p4923
sg7
S'23984728.xml'
p4924
sa(dp4925
g3
VNCT00660907.xml
p4926
sg5
S'21816980'
p4927
sg7
S'21816980.xml'
p4928
sa(dp4929
g3
VNCT00661089.xml
p4930
sg5
S'23064478'
p4931
sg7
S'23064478.xml'
p4932
sa(dp4933
g3
VNCT00661726.xml
p4934
sg5
S'21700776'
p4935
sg7
S'21700776.xml'
p4936
sa(dp4937
g3
VNCT00663117.xml
p4938
sg5
S'21380937'
p4939
sg7
S'21380937.xml'
p4940
sa(dp4941
g3
VNCT00663793.xml
p4942
sg5
S'20378927'
p4943
sg7
S'20378927.xml'
p4944
sa(dp4945
g3
VNCT00665704.xml
p4946
sg5
S'23811612'
p4947
sg7
S'23811612.xml'
p4948
sa(dp4949
g3
VNCT00666224.xml
p4950
sg5
S'19815268'
p4951
sg7
S'19815268.xml'
p4952
sa(dp4953
g3
VNCT00666536.xml
p4954
sg5
S'21045734'
p4955
sg7
S'21045734.xml'
p4956
sa(dp4957
g3
VNCT00666679.xml
p4958
sg5
S'21545249'
p4959
sg7
S'21545249.xml'
p4960
sa(dp4961
g3
VNCT00666848.xml
p4962
sg5
S'20679179'
p4963
sg7
S'20679179.xml'
p4964
sa(dp4965
g3
VNCT00667381.xml
p4966
sg5
S'20650437'
p4967
sg7
S'20650437.xml'
p4968
sa(dp4969
g3
VNCT00668382.xml
p4970
sg5
S'15944250'
p4971
sg7
S'15944250.xml'
p4972
sa(dp4973
g3
VNCT00670800.xml
p4974
sg5
S'21486668'
p4975
sg7
S'21486668.xml'
p4976
sa(dp4977
g3
VNCT00671918.xml
p4978
sg5
S'23054107'
p4979
sg7
S'23054107.xml'
p4980
sa(dp4981
g3
VNCT00671931.xml
p4982
sg5
S'20460997'
p4983
sg7
S'20460997.xml'
p4984
sa(dp4985
g3
VNCT00672100.xml
p4986
sg5
S'22443231'
p4987
sg7
S'22443231.xml'
p4988
sa(dp4989
g3
VNCT00672243.xml
p4990
sg5
S'19562254'
p4991
sg7
S'19562254.xml'
p4992
sa(dp4993
g3
VNCT00672555.xml
p4994
sg5
S'21383571'
p4995
sg7
S'21383571.xml'
p4996
sa(dp4997
g3
VNCT00672620.xml
p4998
sg5
S'23252878'
p4999
sg7
S'23252878.xml'
p5000
sa(dp5001
g3
VNCT00672932.xml
p5002
sg5
S'22021620'
p5003
sg7
S'22021620.xml'
p5004
sa(dp5005
g3
VNCT00672958.xml
p5006
sg5
S'22963932'
p5007
sg7
S'22963932.xml'
p5008
sa(dp5009
g3
VNCT00673400.xml
p5010
sg5
S'20485001'
p5011
sg7
S'20485001.xml'
p5012
sa(dp5013
g3
VNCT00674609.xml
p5014
sg5
S'19896326'
p5015
sg7
S'19896326.xml'
p5016
sa(dp5017
g3
VNCT00675584.xml
p5018
sg5
S'22111718'
p5019
sg7
S'22111718.xml'
p5020
sa(dp5021
g3
VNCT00675948.xml
p5022
sg5
S'23141881'
p5023
sg7
S'23141881.xml'
p5024
sa(dp5025
g3
VNCT00675987.xml
p5026
sg5
S'21861845'
p5027
sg7
S'21861845.xml'
p5028
sa(dp5029
g3
VNCT00676208.xml
p5030
sg5
S'19302693'
p5031
sg7
S'19302693.xml'
p5032
sa(dp5033
g3
VNCT00676780.xml
p5034
sg5
S'19542190'
p5035
sg7
S'19542190.xml'
p5036
sa(dp5037
g3
VNCT00677534.xml
p5038
sg5
S'20007751'
p5039
sg7
S'20007751.xml'
p5040
sa(dp5041
g3
VNCT00677898.xml
p5042
sg5
S'25178383'
p5043
sg7
S'25178383.xml'
p5044
sa(dp5045
g3
VNCT00678470.xml
p5046
sg5
S'22506829'
p5047
sg7
S'22506829.xml'
p5048
sa(dp5049
g3
VNCT00678795.xml
p5050
sg5
S'20829244'
p5051
sg7
S'20829244.xml'
p5052
sa(dp5053
g3
VNCT00678834.xml
p5054
sg5
S'22298568'
p5055
sg7
S'22298568.xml'
p5056
sa(dp5057
g3
VNCT00679432.xml
p5058
sg5
S'22892337'
p5059
sg7
S'22892337.xml'
p5060
sa(dp5061
g3
VNCT00680953.xml
p5062
sg5
S'24646104'
p5063
sg7
S'24646104.xml'
p5064
sa(dp5065
g3
VNCT00681538.xml
p5066
sg5
S'21362108'
p5067
sg7
S'21362108.xml'
p5068
sa(dp5069
g3
VNCT00681564.xml
p5070
sg5
S'24495202'
p5071
sg7
S'24495202.xml'
p5072
sa(dp5073
g3
VNCT00683163.xml
p5074
sg5
S'23589163'
p5075
sg7
S'23589163.xml'
p5076
sa(dp5077
g3
VNCT00683293.xml
p5078
sg5
S'22914470'
p5079
sg7
S'22914470.xml'
p5080
sa(dp5081
g3
VNCT00684021.xml
p5082
sg5
S'23129008'
p5083
sg7
S'23129008.xml'
p5084
sa(dp5085
g3
VNCT00684060.xml
p5086
sg5
S'22084195'
p5087
sg7
S'22084195.xml'
p5088
sa(dp5089
g3
VNCT00684203.xml
p5090
sg5
S'20124733'
p5091
sg7
S'20124733.xml'
p5092
sa(dp5093
g3
VNCT00684515.xml
p5094
sg5
S'20947374'
p5095
sg7
S'20947374.xml'
p5096
sa(dp5097
g3
VNCT00685945.xml
p5098
sg5
S'19841473'
p5099
sg7
S'19841473.xml'
p5100
sa(dp5101
g3
VNCT00686257.xml
p5102
sg5
S'21330385'
p5103
sg7
S'21330385.xml'
p5104
sa(dp5105
g3
VNCT00686517.xml
p5106
sg5
S'24442928'
p5107
sg7
S'24442928.xml'
p5108
sa(dp5109
g3
VNCT00686543.xml
p5110
sg5
S'22290953'
p5111
sg7
S'22290953.xml'
p5112
sa(dp5113
g3
VNCT00687076.xml
p5114
sg5
S'24267254'
p5115
sg7
S'24267254.xml'
p5116
sa(dp5117
g3
VNCT00687323.xml
p5118
sg5
S'17252015'
p5119
sg7
S'17252015.xml'
p5120
sa(dp5121
g3
VNCT00688740.xml
p5122
sg5
S'15930421'
p5123
sg7
S'15930421.xml'
p5124
sa(dp5125
g3
VNCT00689221.xml
p5126
sg5
S'25163906'
p5127
sg7
S'25163906.xml'
p5128
sa(dp5129
g3
VNCT00689793.xml
p5130
sg5
S'22272750'
p5131
sg7
S'22272750.xml'
p5132
sa(dp5133
g3
VNCT00689871.xml
p5134
sg5
S'18090808'
p5135
sg7
S'18090808.xml'
p5136
sa(dp5137
g3
VNCT00690339.xml
p5138
sg5
S'18090813'
p5139
sg7
S'18090813.xml'
p5140
sa(dp5141
g3
VNCT00690820.xml
p5142
sg5
S'20171415'
p5143
sg7
S'20171415.xml'
p5144
sa(dp5145
g3
VNCT00690898.xml
p5146
sg5
S'24423301'
p5147
sg7
S'24423301.xml'
p5148
sa(dp5149
g3
VNCT00691054.xml
p5150
sg5
S'22307213'
p5151
sg7
S'22307213.xml'
p5152
sa(dp5153
g3
VNCT00692211.xml
p5154
sg5
S'21348568'
p5155
sg7
S'21348568.xml'
p5156
sa(dp5157
g3
VNCT00692237.xml
p5158
sg5
S'22496161'
p5159
sg7
S'22496161.xml'
p5160
sa(dp5161
g3
VNCT00692419.xml
p5162
sg5
S'20601163'
p5163
sg7
S'20601163.xml'
p5164
sa(dp5165
g3
VNCT00694018.xml
p5166
sg5
S'23969029'
p5167
sg7
S'23969029.xml'
p5168
sa(dp5169
g3
VNCT00694304.xml
p5170
sg5
S'22978748'
p5171
sg7
S'22978748.xml'
p5172
sa(dp5173
g3
VNCT00696241.xml
p5174
sg5
S'21282560'
p5175
sg7
S'21282560.xml'
p5176
sa(dp5177
g3
VNCT00696436.xml
p5178
sg5
S'21282560'
p5179
sg7
S'21282560.xml'
p5180
sa(dp5181
g3
VNCT00697073.xml
p5182
sg5
S'21779958'
p5183
sg7
S'21779958.xml'
p5184
sa(dp5185
g3
VNCT00697515.xml
p5186
sg5
S'20576091'
p5187
sg7
S'20576091.xml'
p5188
sa(dp5189
g3
VNCT00699660.xml
p5190
sg5
S'23821175'
p5191
sg7
S'23821175.xml'
p5192
sa(dp5193
g3
VNCT00699751.xml
p5194
sg5
S'23863050'
p5195
sg7
S'23863050.xml'
p5196
sa(dp5197
g3
VNCT00699972.xml
p5198
sg5
S'22843280'
p5199
sg7
S'22843280.xml'
p5200
sa(dp5201
g3
VNCT00700115.xml
p5202
sg5
S'22364141'
p5203
sg7
S'22364141.xml'
p5204
sa(dp5205
g3
VNCT00700973.xml
p5206
sg5
S'21388590'
p5207
sg7
S'21388590.xml'
p5208
sa(dp5209
g3
VNCT00701090.xml
p5210
sg5
S'21199268'
p5211
sg7
S'21199268.xml'
p5212
sa(dp5213
g3
VNCT00701389.xml
p5214
sg5
S'23798725'
p5215
sg7
S'23798725.xml'
p5216
sa(dp5217
g3
VNCT00701662.xml
p5218
sg5
S'21692906'
p5219
sg7
S'21692906.xml'
p5220
sa(dp5221
g3
VNCT00702468.xml
p5222
sg5
S'21878454'
p5223
sg7
S'21878454.xml'
p5224
sa(dp5225
g3
VNCT00702650.xml
p5226
sg5
S'21689131'
p5227
sg7
S'21689131.xml'
p5228
sa(dp5229
g3
VNCT00702715.xml
p5230
sg5
S'25829395'
p5231
sg7
S'25829395.xml'
p5232
sa(dp5233
g3
VNCT00702845.xml
p5234
sg5
S'20483664'
p5235
sg7
S'20483664.xml'
p5236
sa(dp5237
g3
VNCT00703053.xml
p5238
sg5
S'21282194'
p5239
sg7
S'21282194.xml'
p5240
sa(dp5241
g3
VNCT00703963.xml
p5242
sg5
S'22921821'
p5243
sg7
S'22921821.xml'
p5244
sa(dp5245
g3
VNCT00704184.xml
p5246
sg5
S'22473713'
p5247
sg7
S'22473713.xml'
p5248
sa(dp5249
g3
VNCT00704405.xml
p5250
sg5
S'23439259'
p5251
sg7
S'23439259.xml'
p5252
sa(dp5253
g3
VNCT00705016.xml
p5254
sg5
S'24567516'
p5255
sg7
S'24567516.xml'
p5256
sa(dp5257
g3
VNCT00705146.xml
p5258
sg5
S'21420278'
p5259
sg7
S'21420278.xml'
p5260
sa(dp5261
g3
VNCT00705536.xml
p5262
sg5
S'19459762'
p5263
sg7
S'19459762.xml'
p5264
sa(dp5265
g3
VNCT00705783.xml
p5266
sg5
S'22697189'
p5267
sg7
S'22697189.xml'
p5268
sa(dp5269
g3
VNCT00706342.xml
p5270
sg5
S'19096013'
p5271
sg7
S'19096013.xml'
p5272
sa(dp5273
g3
VNCT00706836.xml
p5274
sg5
S'21430645'
p5275
sg7
S'21430645.xml'
p5276
sa(dp5277
g3
VNCT00706849.xml
p5278
sg5
S'23060426'
p5279
sg7
S'23060426.xml'
p5280
sa(dp5281
g3
VNCT00707447.xml
p5282
sg5
S'19509014'
p5283
sg7
S'19509014.xml'
p5284
sa(dp5285
g3
VNCT00708162.xml
p5286
sg5
S'22015077'
p5287
sg7
S'22015077.xml'
p5288
sa(dp5289
g3
VNCT00708435.xml
p5290
sg5
S'23935011'
p5291
sg7
S'23935011.xml'
p5292
sa(dp5293
g3
VNCT00708461.xml
p5294
sg5
S'23108493'
p5295
sg7
S'23108493.xml'
p5296
sa(dp5297
g3
VNCT00710554.xml
p5298
sg5
S'24420962'
p5299
sg7
S'24420962.xml'
p5300
sa(dp5301
g3
VNCT00710944.xml
p5302
sg5
S'21197501'
p5303
sg7
S'21197501.xml'
p5304
sa(dp5305
g3
VNCT00711022.xml
p5306
sg5
S'19587876'
p5307
sg7
S'19587876.xml'
p5308
sa(dp5309
g3
VNCT00711425.xml
p5310
sg5
S'22111584'
p5311
sg7
S'22111584.xml'
p5312
sa(dp5313
g3
VNCT00711646.xml
p5314
sg5
S'17355549'
p5315
sg7
S'17355549.xml'
p5316
sa(dp5317
g3
VNCT00711880.xml
p5318
sg5
S'17997224'
p5319
sg7
S'17997224.xml'
p5320
sa(dp5321
g3
VNCT00712530.xml
p5322
sg5
S'22590502'
p5323
sg7
S'22590502.xml'
p5324
sa(dp5325
g3
VNCT00712725.xml
p5326
sg5
S'21383045'
p5327
sg7
S'21383045.xml'
p5328
sa(dp5329
g3
VNCT00712959.xml
p5330
sg5
S'22115634'
p5331
sg7
S'22115634.xml'
p5332
sa(dp5333
g3
VNCT00713479.xml
p5334
sg5
S'20689642'
p5335
sg7
S'20689642.xml'
p5336
sa(dp5337
g3
VNCT00714714.xml
p5338
sg5
S'12243706'
p5339
sg7
S'12243706.xml'
p5340
sa(dp5341
g3
VNCT00715117.xml
p5342
sg5
S'23188075'
p5343
sg7
S'23188075.xml'
p5344
sa(dp5345
g3
VNCT00717756.xml
p5346
sg5
S'23648434'
p5347
sg7
S'23648434.xml'
p5348
sa(dp5349
g3
VNCT00717977.xml
p5350
sg5
S'20215454'
p5351
sg7
S'20215454.xml'
p5352
sa(dp5353
g3
VNCT00718081.xml
p5354
sg5
S'23271030'
p5355
sg7
S'23271030.xml'
p5356
sa(dp5357
g3
VNCT00718237.xml
p5358
sg5
S'23732903'
p5359
sg7
S'23732903.xml'
p5360
sa(dp5361
g3
VNCT00719134.xml
p5362
sg5
S'24401940'
p5363
sg7
S'24401940.xml'
p5364
sa(dp5365
g3
VNCT00719355.xml
p5366
sg5
S'22495802'
p5367
sg7
S'22495802.xml'
p5368
sa(dp5369
g3
VNCT00719680.xml
p5370
sg5
S'24412910'
p5371
sg7
S'24412910.xml'
p5372
sa(dp5373
g3
VNCT00722371.xml
p5374
sg5
S'23909985'
p5375
sg7
S'23909985.xml'
p5376
sa(dp5377
g3
VNCT00724126.xml
p5378
sg5
S'21208106'
p5379
sg7
S'21208106.xml'
p5380
sa(dp5381
g3
VNCT00724308.xml
p5382
sg5
S'23497630'
p5383
sg7
S'23497630.xml'
p5384
sa(dp5385
g3
VNCT00724347.xml
p5386
sg5
S'23341320'
p5387
sg7
S'23341320.xml'
p5388
sa(dp5389
g3
VNCT00724594.xml
p5390
sg5
S'25064164'
p5391
sg7
S'25064164.xml'
p5392
sa(dp5393
g3
VNCT00724932.xml
p5394
sg5
S'22698066'
p5395
sg7
S'22698066.xml'
p5396
sa(dp5397
g3
VNCT00724984.xml
p5398
sg5
S'16731764'
p5399
sg7
S'16731764.xml'
p5400
sa(dp5401
g3
VNCT00726713.xml
p5402
sg5
S'23218892'
p5403
sg7
S'23218892.xml'
p5404
sa(dp5405
g3
VNCT00727857.xml
p5406
sg5
S'21122063'
p5407
sg7
S'21122063.xml'
p5408
sa(dp5409
g3
VNCT00728182.xml
p5410
sg5
S'23051991'
p5411
sg7
S'23051991.xml'
p5412
sa(dp5413
g3
VNCT00728416.xml
p5414
sg5
S'21439168'
p5415
sg7
S'21439168.xml'
p5416
sa(dp5417
g3
VNCT00728481.xml
p5418
sg5
S'22111863'
p5419
sg7
S'22111863.xml'
p5420
sa(dp5421
g3
VNCT00728923.xml
p5422
sg5
S'20923629'
p5423
sg7
S'20923629.xml'
p5424
sa(dp5425
g3
VNCT00729651.xml
p5426
sg5
S'24719139'
p5427
sg7
S'24719139.xml'
p5428
sa(dp5429
g3
VNCT00729690.xml
p5430
sg5
S'22156332'
p5431
sg7
S'22156332.xml'
p5432
sa(dp5433
g3
VNCT00729859.xml
p5434
sg5
S'21797916'
p5435
sg7
S'21797916.xml'
p5436
sa(dp5437
g3
VNCT00729924.xml
p5438
sg5
S'24349334'
p5439
sg7
S'24349334.xml'
p5440
sa(dp5441
g3
VNCT00731094.xml
p5442
sg5
S'24398076'
p5443
sg7
S'24398076.xml'
p5444
sa(dp5445
g3
VNCT00731211.xml
p5446
sg5
S'23665131'
p5447
sg7
S'23665131.xml'
p5448
sa(dp5449
g3
VNCT00731679.xml
p5450
sg5
S'21208106'
p5451
sg7
S'21208106.xml'
p5452
sa(dp5453
g3
VNCT00731939.xml
p5454
sg5
S'22759540'
p5455
sg7
S'22759540.xml'
p5456
sa(dp5457
g3
VNCT00732069.xml
p5458
sg5
S'22158433'
p5459
sg7
S'22158433.xml'
p5460
sa(dp5461
g3
VNCT00732381.xml
p5462
sg5
S'21439168'
p5463
sg7
S'21439168.xml'
p5464
sa(dp5465
g3
VNCT00733135.xml
p5466
sg5
S'24402764'
p5467
sg7
S'24402764.xml'
p5468
sa(dp5469
g3
VNCT00734071.xml
p5470
sg5
S'22901736'
p5471
sg7
S'22901736.xml'
p5472
sa(dp5473
g3
VNCT00734578.xml
p5474
sg5
S'22176941'
p5475
sg7
S'22176941.xml'
p5476
sa(dp5477
g3
VNCT00734929.xml
p5478
sg5
S'21081776'
p5479
sg7
S'21081776.xml'
p5480
sa(dp5481
g3
VNCT00734994.xml
p5482
sg5
S'24490762'
p5483
sg7
S'24490762.xml'
p5484
sa(dp5485
g3
VNCT00735371.xml
p5486
sg5
S'21421179'
p5487
sg7
S'21421179.xml'
p5488
sa(dp5489
g3
VNCT00735644.xml
p5490
sg5
S'22777096'
p5491
sg7
S'22777096.xml'
p5492
sa(dp5493
g3
VNCT00736229.xml
p5494
sg5
S'23186969'
p5495
sg7
S'23186969.xml'
p5496
sa(dp5497
g3
VNCT00737178.xml
p5498
sg5
S'21860292'
p5499
sg7
S'21860292.xml'
p5500
sa(dp5501
g3
VNCT00737204.xml
p5502
sg5
S'21777715'
p5503
sg7
S'21777715.xml'
p5504
sa(dp5505
g3
VNCT00738400.xml
p5506
sg5
S'21771281'
p5507
sg7
S'21771281.xml'
p5508
sa(dp5509
g3
VNCT00740831.xml
p5510
sg5
S'22296076'
p5511
sg7
S'22296076.xml'
p5512
sa(dp5513
g3
VNCT00741013.xml
p5514
sg5
S'19574441'
p5515
sg7
S'19574441.xml'
p5516
sa(dp5517
g3
VNCT00741026.xml
p5518
sg5
S'21857944'
p5519
sg7
S'21857944.xml'
p5520
sa(dp5521
g3
VNCT00741936.xml
p5522
sg5
S'21045817'
p5523
sg7
S'21045817.xml'
p5524
sa(dp5525
g3
VNCT00741988.xml
p5526
sg5
S'22947511'
p5527
sg7
S'22947511.xml'
p5528
sa(dp5529
g3
VNCT00742079.xml
p5530
sg5
S'21723096'
p5531
sg7
S'21723096.xml'
p5532
sa(dp5533
g3
VNCT00743288.xml
p5534
sg5
S'24135804'
p5535
sg7
S'24135804.xml'
p5536
sa(dp5537
g3
VNCT00743574.xml
p5538
sg5
S'22780885'
p5539
sg7
S'22780885.xml'
p5540
sa(dp5541
g3
VNCT00744627.xml
p5542
sg5
S'22898365'
p5543
sg7
S'22898365.xml'
p5544
sa(dp5545
g3
VNCT00745901.xml
p5546
sg5
S'19935020'
p5547
sg7
S'19935020.xml'
p5548
sa(dp5549
g3
VNCT00746096.xml
p5550
sg5
S'21420678'
p5551
sg7
S'21420678.xml'
p5552
sa(dp5553
g3
VNCT00746512.xml
p5554
sg5
S'22972032'
p5555
sg7
S'22972032.xml'
p5556
sa(dp5557
g3
VNCT00746733.xml
p5558
sg5
S'19820270'
p5559
sg7
S'19820270.xml'
p5560
sa(dp5561
g3
VNCT00749931.xml
p5562
sg5
S'24595800'
p5563
sg7
S'24595800.xml'
p5564
sa(dp5565
g3
VNCT00750061.xml
p5566
sg5
S'22105463'
p5567
sg7
S'22105463.xml'
p5568
sa(dp5569
g3
VNCT00750152.xml
p5570
sg5
S'21968664'
p5571
sg7
S'21968664.xml'
p5572
sa(dp5573
g3
VNCT00750282.xml
p5574
sg5
S'21481640'
p5575
sg7
S'21481640.xml'
p5576
sa(dp5577
g3
VNCT00751114.xml
p5578
sg5
S'22683131'
p5579
sg7
S'22683131.xml'
p5580
sa(dp5581
g3
VNCT00751621.xml
p5582
sg5
S'24412910'
p5583
sg7
S'24412910.xml'
p5584
sa(dp5585
g3
VNCT00751972.xml
p5586
sg5
S'22619284'
p5587
sg7
S'22619284.xml'
p5588
sa(dp5589
g3
VNCT00752973.xml
p5590
sg5
S'17845167'
p5591
sg7
S'17845167.xml'
p5592
sa(dp5593
g3
VNCT00753142.xml
p5594
sg5
S'20067967'
p5595
sg7
S'20067967.xml'
p5596
sa(dp5597
g3
VNCT00753506.xml
p5598
sg5
S'21546216'
p5599
sg7
S'21546216.xml'
p5600
sa(dp5601
g3
VNCT00753948.xml
p5602
sg5
S'20012982'
p5603
sg7
S'20012982.xml'
p5604
sa(dp5605
g3
VNCT00754065.xml
p5606
sg5
S'23638631'
p5607
sg7
S'23638631.xml'
p5608
sa(dp5609
g3
VNCT00754442.xml
p5610
sg5
S'23186957'
p5611
sg7
S'23186957.xml'
p5612
sa(dp5613
g3
VNCT00754546.xml
p5614
sg5
S'20040610'
p5615
sg7
S'20040610.xml'
p5616
sa(dp5617
g3
VNCT00754832.xml
p5618
sg5
S'21803872'
p5619
sg7
S'21803872.xml'
p5620
sa(dp5621
g3
VNCT00755235.xml
p5622
sg5
S'21384219'
p5623
sg7
S'21384219.xml'
p5624
sa(dp5625
g3
VNCT00755755.xml
p5626
sg5
S'22296075'
p5627
sg7
S'22296075.xml'
p5628
sa(dp5629
g3
VNCT00755846.xml
p5630
sg5
S'19793357'
p5631
sg7
S'19793357.xml'
p5632
sa(dp5633
g3
VNCT00756938.xml
p5634
sg5
S'24875194'
p5635
sg7
S'24875194.xml'
p5636
sa(dp5637
g3
VNCT00757627.xml
p5638
sg5
S'20536599'
p5639
sg7
S'20536599.xml'
p5640
sa(dp5641
g3
VNCT00759525.xml
p5642
sg5
S'20515440'
p5643
sg7
S'20515440.xml'
p5644
sa(dp5645
g3
VNCT00759681.xml
p5646
sg5
S'22939276'
p5647
sg7
S'22939276.xml'
p5648
sa(dp5649
g3
VNCT00759811.xml
p5650
sg5
S'19944358'
p5651
sg7
S'19944358.xml'
p5652
sa(dp5653
g3
VNCT00760383.xml
p5654
sg5
S'22204954'
p5655
sg7
S'22204954.xml'
p5656
sa(dp5657
g3
VNCT00760526.xml
p5658
sg5
S'22210571'
p5659
sg7
S'22210571.xml'
p5660
sa(dp5661
g3
VNCT00760552.xml
p5662
sg5
S'23730989'
p5663
sg7
S'23730989.xml'
p5664
sa(dp5665
g3
VNCT00762229.xml
p5666
sg5
S'19463517'
p5667
sg7
S'19463517.xml'
p5668
sa(dp5669
g3
VNCT00762268.xml
p5670
sg5
S'24699040'
p5671
sg7
S'24699040.xml'
p5672
sa(dp5673
g3
VNCT00763139.xml
p5674
sg5
S'24020899'
p5675
sg7
S'24020899.xml'
p5676
sa(dp5677
g3
VNCT00763282.xml
p5678
sg5
S'24486242'
p5679
sg7
S'24486242.xml'
p5680
sa(dp5681
g3
VNCT00763867.xml
p5682
sg5
S'23478662'
p5683
sg7
S'23478662.xml'
p5684
sa(dp5685
g3
VNCT00763971.xml
p5686
sg5
S'23332456'
p5687
sg7
S'23332456.xml'
p5688
sa(dp5689
g3
VNCT00764868.xml
p5690
sg5
S'23410138'
p5691
sg7
S'23410138.xml'
p5692
sa(dp5693
g3
VNCT00764946.xml
p5694
sg5
S'23351187'
p5695
sg7
S'23351187.xml'
p5696
sa(dp5697
g3
VNCT00766532.xml
p5698
sg5
S'22350731'
p5699
sg7
S'22350731.xml'
p5700
sa(dp5701
g3
VNCT00766649.xml
p5702
sg5
S'23548622'
p5703
sg7
S'23548622.xml'
p5704
sa(dp5705
g3
VNCT00769015.xml
p5706
sg5
S'25016366'
p5707
sg7
S'25016366.xml'
p5708
sa(dp5709
g3
VNCT00769561.xml
p5710
sg5
S'23446073'
p5711
sg7
S'23446073.xml'
p5712
sa(dp5713
g3
VNCT00770029.xml
p5714
sg5
S'23379292'
p5715
sg7
S'23379292.xml'
p5716
sa(dp5717
g3
VNCT00770315.xml
p5718
sg5
S'23622121'
p5719
sg7
S'23622121.xml'
p5720
sa(dp5721
g3
VNCT00770341.xml
p5722
sg5
S'23085743'
p5723
sg7
S'23085743.xml'
p5724
sa(dp5725
g3
VNCT00771472.xml
p5726
sg5
S'22506596'
p5727
sg7
S'22506596.xml'
p5728
sa(dp5729
g3
VNCT00771537.xml
p5730
sg5
S'18191770'
p5731
sg7
S'18191770.xml'
p5732
sa(dp5733
g3
VNCT00771849.xml
p5734
sg5
S'16417952'
p5735
sg7
S'16417952.xml'
p5736
sa(dp5737
g3
VNCT00772070.xml
p5738
sg5
S'17072120'
p5739
sg7
S'17072120.xml'
p5740
sa(dp5741
g3
VNCT00772590.xml
p5742
sg5
S'21930607'
p5743
sg7
S'21930607.xml'
p5744
sa(dp5745
g3
VNCT00773097.xml
p5746
sg5
S'23248097'
p5747
sg7
S'23248097.xml'
p5748
sa(dp5749
g3
VNCT00774800.xml
p5750
sg5
S'21273493'
p5751
sg7
S'21273493.xml'
p5752
sa(dp5753
g3
VNCT00775203.xml
p5754
sg5
S'19724732'
p5755
sg7
S'19724732.xml'
p5756
sa(dp5757
g3
VNCT00775671.xml
p5758
sg5
S'22353614'
p5759
sg7
S'22353614.xml'
p5760
sa(dp5761
g3
VNCT00777205.xml
p5762
sg5
S'24135507'
p5763
sg7
S'24135507.xml'
p5764
sa(dp5765
g3
VNCT00777790.xml
p5766
sg5
S'16203934'
p5767
sg7
S'16203934.xml'
p5768
sa(dp5769
g3
VNCT00777803.xml
p5770
sg5
S'21134045'
p5771
sg7
S'21134045.xml'
p5772
sa(dp5773
g3
VNCT00779116.xml
p5774
sg5
S'23282979'
p5775
sg7
S'23282979.xml'
p5776
sa(dp5777
g3
VNCT00780338.xml
p5778
sg5
S'22446975'
p5779
sg7
S'22446975.xml'
p5780
sa(dp5781
g3
VNCT00780416.xml
p5782
sg5
S'21827730'
p5783
sg7
S'21827730.xml'
p5784
sa(dp5785
g3
VNCT00780910.xml
p5786
sg5
S'22239511'
p5787
sg7
S'22239511.xml'
p5788
sa(dp5789
g3
VNCT00781079.xml
p5790
sg5
S'24091610'
p5791
sg7
S'24091610.xml'
p5792
sa(dp5793
g3
VNCT00781274.xml
p5794
sg5
S'22239511'
p5795
sg7
S'22239511.xml'
p5796
sa(dp5797
g3
VNCT00781365.xml
p5798
sg5
S'23821088'
p5799
sg7
S'23821088.xml'
p5800
sa(dp5801
g3
VNCT00781963.xml
p5802
sg5
S'23149875'
p5803
sg7
S'23149875.xml'
p5804
sa(dp5805
g3
VNCT00782717.xml
p5806
sg5
S'22927737'
p5807
sg7
S'22927737.xml'
p5808
sa(dp5809
g3
VNCT00783263.xml
p5810
sg5
S'21596364'
p5811
sg7
S'21596364.xml'
p5812
sa(dp5813
g3
VNCT00783718.xml
p5814
sg5
S'23964932'
p5815
sg7
S'23964932.xml'
p5816
sa(dp5817
g3
VNCT00784459.xml
p5818
sg5
S'23292882'
p5819
sg7
S'23292882.xml'
p5820
sa(dp5821
g3
VNCT00789685.xml
p5822
sg5
S'24503265'
p5823
sg7
S'24503265.xml'
p5824
sa(dp5825
g3
VNCT00789698.xml
p5826
sg5
S'23583011'
p5827
sg7
S'23583011.xml'
p5828
sa(dp5829
g3
VNCT00789880.xml
p5830
sg5
S'16895558'
p5831
sg7
S'16895558.xml'
p5832
sa(dp5833
g3
VNCT00790023.xml
p5834
sg5
S'21130386'
p5835
sg7
S'21130386.xml'
p5836
sa(dp5837
g3
VNCT00790062.xml
p5838
sg5
S'22227638'
p5839
sg7
S'22227638.xml'
p5840
sa(dp5841
g3
VNCT00790192.xml
p5842
sg5
S'23415311'
p5843
sg7
S'23415311.xml'
p5844
sa(dp5845
g3
VNCT00790751.xml
p5846
sg5
S'22248153'
p5847
sg7
S'22248153.xml'
p5848
sa(dp5849
g3
VNCT00790907.xml
p5850
sg5
S'20805623'
p5851
sg7
S'20805623.xml'
p5852
sa(dp5853
g3
VNCT00791778.xml
p5854
sg5
S'23591401'
p5855
sg7
S'23591401.xml'
p5856
sa(dp5857
g3
VNCT00791908.xml
p5858
sg5
S'20083690'
p5859
sg7
S'20083690.xml'
p5860
sa(dp5861
g3
VNCT00792298.xml
p5862
sg5
S'23197752'
p5863
sg7
S'23197752.xml'
p5864
sa(dp5865
g3
VNCT00793455.xml
p5866
sg5
S'21149742'
p5867
sg7
S'21149742.xml'
p5868
sa(dp5869
g3
VNCT00793611.xml
p5870
sg5
S'6805716'
p5871
sg7
S'6805716.xml'
p5872
sa(dp5873
g3
VNCT00794547.xml
p5874
sg5
S'23435876'
p5875
sg7
S'23435876.xml'
p5876
sa(dp5877
g3
VNCT00794664.xml
p5878
sg5
S'23152839'
p5879
sg7
S'23152839.xml'
p5880
sa(dp5881
g3
VNCT00796744.xml
p5882
sg5
S'22672145'
p5883
sg7
S'22672145.xml'
p5884
sa(dp5885
g3
VNCT00798967.xml
p5886
sg5
S'16099790'
p5887
sg7
S'16099790.xml'
p5888
sa(dp5889
g3
VNCT00799643.xml
p5890
sg5
S'23817699'
p5891
sg7
S'23817699.xml'
p5892
sa(dp5893
g3
VNCT00800982.xml
p5894
sg5
S'22702846'
p5895
sg7
S'22702846.xml'
p5896
sa(dp5897
g3
VNCT00801632.xml
p5898
sg5
S'23656665'
p5899
sg7
S'23656665.xml'
p5900
sa(dp5901
g3
VNCT00803101.xml
p5902
sg5
S'25728933'
p5903
sg7
S'25728933.xml'
p5904
sa(dp5905
g3
VNCT00803777.xml
p5906
sg5
S'10937512'
p5907
sg7
S'10937512.xml'
p5908
sa(dp5909
g3
VNCT00803959.xml
p5910
sg5
S'19635587'
p5911
sg7
S'19635587.xml'
p5912
sa(dp5913
g3
VNCT00805792.xml
p5914
sg5
S'21295494'
p5915
sg7
S'21295494.xml'
p5916
sa(dp5917
g3
VNCT00806403.xml
p5918
sg5
S'16569536'
p5919
sg7
S'16569536.xml'
p5920
sa(dp5921
g3
VNCT00807001.xml
p5922
sg5
S'23070151'
p5923
sg7
S'23070151.xml'
p5924
sa(dp5925
g3
VNCT00807248.xml
p5926
sg5
S'22008735'
p5927
sg7
S'22008735.xml'
p5928
sa(dp5929
g3
VNCT00809445.xml
p5930
sg5
S'22515871'
p5931
sg7
S'22515871.xml'
p5932
sa(dp5933
g3
VNCT00810199.xml
p5934
sg5
S'22562983'
p5935
sg7
S'22562983.xml'
p5936
sa(dp5937
g3
VNCT00810602.xml
p5938
sg5
S'24295572'
p5939
sg7
S'24295572.xml'
p5940
sa(dp5941
g3
VNCT00810693.xml
p5942
sg5
S'23883383'
p5943
sg7
S'23883383.xml'
p5944
sa(dp5945
g3
VNCT00811252.xml
p5946
sg5
S'22572889'
p5947
sg7
S'22572889.xml'
p5948
sa(dp5949
g3
VNCT00811395.xml
p5950
sg5
S'22622860'
p5951
sg7
S'22622860.xml'
p5952
sa(dp5953
g3
VNCT00811642.xml
p5954
sg5
S'22324990'
p5955
sg7
S'22324990.xml'
p5956
sa(dp5957
g3
VNCT00811720.xml
p5958
sg5
S'23237314'
p5959
sg7
S'23237314.xml'
p5960
sa(dp5961
g3
VNCT00812006.xml
p5962
sg5
S'22078129'
p5963
sg7
S'22078129.xml'
p5964
sa(dp5965
g3
VNCT00812461.xml
p5966
sg5
S'23562264'
p5967
sg7
S'23562264.xml'
p5968
sa(dp5969
g3
VNCT00812877.xml
p5970
sg5
S'23690353'
p5971
sg7
S'23690353.xml'
p5972
sa(dp5973
g3
VNCT00813917.xml
p5974
sg5
S'21504885'
p5975
sg7
S'21504885.xml'
p5976
sa(dp5977
g3
VNCT00814177.xml
p5978
sg5
S'19640572'
p5979
sg7
S'19640572.xml'
p5980
sa(dp5981
g3
VNCT00815308.xml
p5982
sg5
S'11208820'
p5983
sg7
S'11208820.xml'
p5984
sa(dp5985
g3
VNCT00815490.xml
p5986
sg5
S'22883447'
p5987
sg7
S'22883447.xml'
p5988
sa(dp5989
g3
VNCT00816036.xml
p5990
sg5
S'23649783'
p5991
sg7
S'23649783.xml'
p5992
sa(dp5993
g3
VNCT00818246.xml
p5994
sg5
S'19587693'
p5995
sg7
S'19587693.xml'
p5996
sa(dp5997
g3
VNCT00819156.xml
p5998
sg5
S'18538469'
p5999
sg7
S'18538469.xml'
p6000
sa(dp6001
g3
VNCT00819182.xml
p6002
sg5
S'22936289'
p6003
sg7
S'22936289.xml'
p6004
sa(dp6005
g3
VNCT00821821.xml
p6006
sg5
S'24135530'
p6007
sg7
S'24135530.xml'
p6008
sa(dp6009
g3
VNCT00822757.xml
p6010
sg5
S'22192849'
p6011
sg7
S'22192849.xml'
p6012
sa(dp6013
g3
VNCT00823264.xml
p6014
sg5
S'22897408'
p6015
sg7
S'22897408.xml'
p6016
sa(dp6017
g3
VNCT00823303.xml
p6018
sg5
S'24970869'
p6019
sg7
S'24970869.xml'
p6020
sa(dp6021
g3
VNCT00824005.xml
p6022
sg5
S'22447880'
p6023
sg7
S'22447880.xml'
p6024
sa(dp6025
g3
VNCT00824434.xml
p6026
sg5
S'21550907'
p6027
sg7
S'21550907.xml'
p6028
sa(dp6029
g3
VNCT00824746.xml
p6030
sg5
S'22333554'
p6031
sg7
S'22333554.xml'
p6032
sa(dp6033
g3
VNCT00825162.xml
p6034
sg5
S'23551933'
p6035
sg7
S'23551933.xml'
p6036
sa(dp6037
g3
VNCT00825318.xml
p6038
sg5
S'3727139'
p6039
sg7
S'3727139.xml'
p6040
sa(dp6041
g3
VNCT00825630.xml
p6042
sg5
S'12526935'
p6043
sg7
S'12526935.xml'
p6044
sa(dp6045
g3
VNCT00825812.xml
p6046
sg5
S'25187755'
p6047
sg7
S'25187755.xml'
p6048
sa(dp6049
g3
VNCT00828516.xml
p6050
sg5
S'21917515'
p6051
sg7
S'21917515.xml'
p6052
sa(dp6053
g3
VNCT00829985.xml
p6054
sg5
S'24184147'
p6055
sg7
S'24184147.xml'
p6056
sa(dp6057
g3
VNCT00831311.xml
p6058
sg5
S'21372751'
p6059
sg7
S'21372751.xml'
p6060
sa(dp6061
g3
VNCT00832377.xml
p6062
sg5
S'23377586'
p6063
sg7
S'23377586.xml'
p6064
sa(dp6065
g3
VNCT00832455.xml
p6066
sg5
S'24932181'
p6067
sg7
S'24932181.xml'
p6068
sa(dp6069
g3
VNCT00833794.xml
p6070
sg5
S'17583466'
p6071
sg7
S'17583466.xml'
p6072
sa(dp6073
g3
VNCT00833911.xml
p6074
sg5
S'18052769'
p6075
sg7
S'18052769.xml'
p6076
sa(dp6077
g3
VNCT00834288.xml
p6078
sg5
S'20051587'
p6079
sg7
S'20051587.xml'
p6080
sa(dp6081
g3
VNCT00834678.xml
p6082
sg5
S'23430121'
p6083
sg7
S'23430121.xml'
p6084
sa(dp6085
g3
VNCT00834808.xml
p6086
sg5
S'17575561'
p6087
sg7
S'17575561.xml'
p6088
sa(dp6089
g3
VNCT00834886.xml
p6090
sg5
S'24132057'
p6091
sg7
S'24132057.xml'
p6092
sa(dp6093
g3
VNCT00835159.xml
p6094
sg5
S'22886871'
p6095
sg7
S'22886871.xml'
p6096
sa(dp6097
g3
VNCT00835224.xml
p6098
sg5
S'21762873'
p6099
sg7
S'21762873.xml'
p6100
sa(dp6101
g3
VNCT00836433.xml
p6102
sg5
S'21331567'
p6103
sg7
S'21331567.xml'
p6104
sa(dp6105
g3
VNCT00836953.xml
p6106
sg5
S'16220095'
p6107
sg7
S'16220095.xml'
p6108
sa(dp6109
g3
VNCT00837486.xml
p6110
sg5
S'25726497'
p6111
sg7
S'25726497.xml'
p6112
sa(dp6113
g3
VNCT00837577.xml
p6114
sg5
S'24843714'
p6115
sg7
S'24843714.xml'
p6116
sa(dp6117
g3
VNCT00837616.xml
p6118
sg5
S'23678038'
p6119
sg7
S'23678038.xml'
p6120
sa(dp6121
g3
VNCT00839319.xml
p6122
sg5
S'20484472'
p6123
sg7
S'20484472.xml'
p6124
sa(dp6125
g3
VNCT00839423.xml
p6126
sg5
S'21767441'
p6127
sg7
S'21767441.xml'
p6128
sa(dp6129
g3
VNCT00841269.xml
p6130
sg5
S'21486171'
p6131
sg7
S'21486171.xml'
p6132
sa(dp6133
g3
VNCT00841321.xml
p6134
sg5
S'22955125'
p6135
sg7
S'22955125.xml'
p6136
sa(dp6137
g3
VNCT00841412.xml
p6138
sg5
S'24073169'
p6139
sg7
S'24073169.xml'
p6140
sa(dp6141
g3
VNCT00841763.xml
p6142
sg5
S'22192847'
p6143
sg7
S'22192847.xml'
p6144
sa(dp6145
g3
VNCT00841776.xml
p6146
sg5
S'20214175'
p6147
sg7
S'20214175.xml'
p6148
sa(dp6149
g3
VNCT00841971.xml
p6150
sg5
S'25376267'
p6151
sg7
S'25376267.xml'
p6152
sa(dp6153
g3
VNCT00842023.xml
p6154
sg5
S'21362524'
p6155
sg7
S'21362524.xml'
p6156
sa(dp6157
g3
VNCT00842543.xml
p6158
sg5
S'22381025'
p6159
sg7
S'22381025.xml'
p6160
sa(dp6161
g3
VNCT00842751.xml
p6162
sg5
S'20969601'
p6163
sg7
S'20969601.xml'
p6164
sa(dp6165
g3
VNCT00842985.xml
p6166
sg5
S'21176784'
p6167
sg7
S'21176784.xml'
p6168
sa(dp6169
g3
VNCT00843622.xml
p6170
sg5
S'21994343'
p6171
sg7
S'21994343.xml'
p6172
sa(dp6173
g3
VNCT00844649.xml
p6174
sg5
S'24131140'
p6175
sg7
S'24131140.xml'
p6176
sa(dp6177
g3
VNCT00844805.xml
p6178
sg5
S'23696633'
p6179
sg7
S'23696633.xml'
p6180
sa(dp6181
g3
VNCT00847210.xml
p6182
sg5
S'21716130'
p6183
sg7
S'21716130.xml'
p6184
sa(dp6185
g3
VNCT00848367.xml
p6186
sg5
S'22920044'
p6187
sg7
S'22920044.xml'
p6188
sa(dp6189
g3
VNCT00850070.xml
p6190
sg5
S'23782126'
p6191
sg7
S'23782126.xml'
p6192
sa(dp6193
g3
VNCT00850564.xml
p6194
sg5
S'20943777'
p6195
sg7
S'20943777.xml'
p6196
sa(dp6197
g3
VNCT00851006.xml
p6198
sg5
S'21831448'
p6199
sg7
S'21831448.xml'
p6200
sa(dp6201
g3
VNCT00851630.xml
p6202
sg5
S'20001518'
p6203
sg7
S'20001518.xml'
p6204
sa(dp6205
g3
VNCT00851721.xml
p6206
sg5
S'23910578'
p6207
sg7
S'23910578.xml'
p6208
sa(dp6209
g3
VNCT00852917.xml
p6210
sg5
S'18181382'
p6211
sg7
S'18181382.xml'
p6212
sa(dp6213
g3
VNCT00853333.xml
p6214
sg5
S'23314164'
p6215
sg7
S'23314164.xml'
p6216
sa(dp6217
g3
VNCT00854373.xml
p6218
sg5
S'21315341'
p6219
sg7
S'21315341.xml'
p6220
sa(dp6221
g3
VNCT00855465.xml
p6222
sg5
S'23883377'
p6223
sg7
S'23883377.xml'
p6224
sa(dp6225
g3
VNCT00855595.xml
p6226
sg5
S'20645521'
p6227
sg7
S'20645521.xml'
p6228
sa(dp6229
g3
VNCT00856297.xml
p6230
sg5
S'21339701'
p6231
sg7
S'21339701.xml'
p6232
sa(dp6233
g3
VNCT00856323.xml
p6234
sg5
S'22680280'
p6235
sg7
S'22680280.xml'
p6236
sa(dp6237
g3
VNCT00856557.xml
p6238
sg5
S'23784847'
p6239
sg7
S'23784847.xml'
p6240
sa(dp6241
g3
VNCT00856583.xml
p6242
sg5
S'18384186'
p6243
sg7
S'18384186.xml'
p6244
sa(dp6245
g3
VNCT00856934.xml
p6246
sg5
S'11525858'
p6247
sg7
S'11525858.xml'
p6248
sa(dp6249
g3
VNCT00857415.xml
p6250
sg5
S'21245183'
p6251
sg7
S'21245183.xml'
p6252
sa(dp6253
g3
VNCT00858390.xml
p6254
sg5
S'24311403'
p6255
sg7
S'24311403.xml'
p6256
sa(dp6257
g3
VNCT00858442.xml
p6258
sg5
S'18954394'
p6259
sg7
S'18954394.xml'
p6260
sa(dp6261
g3
VNCT00858845.xml
p6262
sg5
S'23575739'
p6263
sg7
S'23575739.xml'
p6264
sa(dp6265
g3
VNCT00859014.xml
p6266
sg5
S'21786299'
p6267
sg7
S'21786299.xml'
p6268
sa(dp6269
g3
VNCT00859508.xml
p6270
sg5
S'21670715'
p6271
sg7
S'21670715.xml'
p6272
sa(dp6273
g3
VNCT00860028.xml
p6274
sg5
S'21221531'
p6275
sg7
S'21221531.xml'
p6276
sa(dp6277
g3
VNCT00860743.xml
p6278
sg5
S'23587570'
p6279
sg7
S'23587570.xml'
p6280
sa(dp6281
g3
VNCT00862641.xml
p6282
sg5
S'22484721'
p6283
sg7
S'22484721.xml'
p6284
sa(dp6285
g3
VNCT00862823.xml
p6286
sg5
S'22046602'
p6287
sg7
S'22046602.xml'
p6288
sa(dp6289
g3
VNCT00862849.xml
p6290
sg5
S'21714645'
p6291
sg7
S'21714645.xml'
p6292
sa(dp6293
g3
VNCT00862940.xml
p6294
sg5
S'22269160'
p6295
sg7
S'22269160.xml'
p6296
sa(dp6297
g3
VNCT00864123.xml
p6298
sg5
S'20817153'
p6299
sg7
S'20817153.xml'
p6300
sa(dp6301
g3
VNCT00865046.xml
p6302
sg5
S'24184053'
p6303
sg7
S'24184053.xml'
p6304
sa(dp6305
g3
VNCT00865098.xml
p6306
sg5
S'23479383'
p6307
sg7
S'23479383.xml'
p6308
sa(dp6309
g3
VNCT00865306.xml
p6310
sg5
S'20658807'
p6311
sg7
S'20658807.xml'
p6312
sa(dp6313
g3
VNCT00865709.xml
p6314
sg5
S'23532888'
p6315
sg7
S'23532888.xml'
p6316
sa(dp6317
g3
VNCT00867035.xml
p6318
sg5
S'22141237'
p6319
sg7
S'22141237.xml'
p6320
sa(dp6321
g3
VNCT00867139.xml
p6322
sg5
S'23264438'
p6323
sg7
S'23264438.xml'
p6324
sa(dp6325
g3
VNCT00867165.xml
p6326
sg5
S'25841542'
p6327
sg7
S'25841542.xml'
p6328
sa(dp6329
g3
VNCT00868452.xml
p6330
sg5
S'24170221'
p6331
sg7
S'24170221.xml'
p6332
sa(dp6333
g3
VNCT00868699.xml
p6334
sg5
S'24170180'
p6335
sg7
S'24170180.xml'
p6336
sa(dp6337
g3
VNCT00869362.xml
p6338
sg5
S'23036785'
p6339
sg7
S'23036785.xml'
p6340
sa(dp6341
g3
VNCT00869557.xml
p6342
sg5
S'21412057'
p6343
sg7
S'21412057.xml'
p6344
sa(dp6345
g3
VNCT00871351.xml
p6346
sg5
S'24653510'
p6347
sg7
S'24653510.xml'
p6348
sa(dp6349
g3
VNCT00871377.xml
p6350
sg5
S'20667792'
p6351
sg7
S'20667792.xml'
p6352
sa(dp6353
g3
VNCT00872170.xml
p6354
sg5
S'23585527'
p6355
sg7
S'23585527.xml'
p6356
sa(dp6357
g3
VNCT00872599.xml
p6358
sg5
S'23385647'
p6359
sg7
S'23385647.xml'
p6360
sa(dp6361
g3
VNCT00874029.xml
p6362
sg5
S'23635746'
p6363
sg7
S'23635746.xml'
p6364
sa(dp6365
g3
VNCT00874094.xml
p6366
sg5
S'20367676'
p6367
sg7
S'20367676.xml'
p6368
sa(dp6369
g3
VNCT00875017.xml
p6370
sg5
S'21354682'
p6371
sg7
S'21354682.xml'
p6372
sa(dp6373
g3
VNCT00877448.xml
p6374
sg5
S'22318394'
p6375
sg7
S'22318394.xml'
p6376
sa(dp6377
g3
VNCT00877487.xml
p6378
sg5
S'22780921'
p6379
sg7
S'22780921.xml'
p6380
sa(dp6381
g3
VNCT00877890.xml
p6382
sg5
S'21307137'
p6383
sg7
S'21307137.xml'
p6384
sa(dp6385
g3
VNCT00879255.xml
p6386
sg5
S'19576299'
p6387
sg7
S'19576299.xml'
p6388
sa(dp6389
g3
VNCT00879697.xml
p6390
sg5
S'18784409'
p6391
sg7
S'18784409.xml'
p6392
sa(dp6393
g3
VNCT00880022.xml
p6394
sg5
S'21190493'
p6395
sg7
S'21190493.xml'
p6396
sa(dp6397
g3
VNCT00880165.xml
p6398
sg5
S'20488288'
p6399
sg7
S'20488288.xml'
p6400
sa(dp6401
g3
VNCT00880750.xml
p6402
sg5
S'22657252'
p6403
sg7
S'22657252.xml'
p6404
sa(dp6405
g3
VNCT00880763.xml
p6406
sg5
S'25115901'
p6407
sg7
S'25115901.xml'
p6408
sa(dp6409
g3
VNCT00883103.xml
p6410
sg5
S'19701033'
p6411
sg7
S'19701033.xml'
p6412
sa(dp6413
g3
VNCT00884221.xml
p6414
sg5
S'22244781'
p6415
sg7
S'22244781.xml'
p6416
sa(dp6417
g3
VNCT00884273.xml
p6418
sg5
S'22500884'
p6419
sg7
S'22500884.xml'
p6420
sa(dp6421
g3
VNCT00884793.xml
p6422
sg5
S'20939732'
p6423
sg7
S'20939732.xml'
p6424
sa(dp6425
g3
VNCT00885365.xml
p6426
sg5
S'24464974'
p6427
sg7
S'24464974.xml'
p6428
sa(dp6429
g3
VNCT00886340.xml
p6430
sg5
S'19092550'
p6431
sg7
S'19092550.xml'
p6432
sa(dp6433
g3
VNCT00886483.xml
p6434
sg5
S'22617866'
p6435
sg7
S'22617866.xml'
p6436
sa(dp6437
g3
VNCT00886704.xml
p6438
sg5
S'20420756'
p6439
sg7
S'20420756.xml'
p6440
sa(dp6441
g3
VNCT00888433.xml
p6442
sg5
S'21093036'
p6443
sg7
S'21093036.xml'
p6444
sa(dp6445
g3
VNCT00888459.xml
p6446
sg5
S'20060229'
p6447
sg7
S'20060229.xml'
p6448
sa(dp6449
g3
VNCT00892697.xml
p6450
sg5
S'24811404'
p6451
sg7
S'24811404.xml'
p6452
sa(dp6453
g3
VNCT00894361.xml
p6454
sg5
S'19723986'
p6455
sg7
S'19723986.xml'
p6456
sa(dp6457
g3
VNCT00894543.xml
p6458
sg5
S'21245182'
p6459
sg7
S'21245182.xml'
p6460
sa(dp6461
g3
VNCT00894556.xml
p6462
sg5
S'21078681'
p6463
sg7
S'21078681.xml'
p6464
sa(dp6465
g3
VNCT00894803.xml
p6466
sg5
S'23887841'
p6467
sg7
S'23887841.xml'
p6468
sa(dp6469
g3
VNCT00897104.xml
p6470
sg5
S'11422095'
p6471
sg7
S'11422095.xml'
p6472
sa(dp6473
g3
VNCT00897949.xml
p6474
sg5
S'9595867'
p6475
sg7
S'9595867.xml'
p6476
sa(dp6477
g3
VNCT00898677.xml
p6478
sg5
S'11284463'
p6479
sg7
S'11284463.xml'
p6480
sa(dp6481
g3
VNCT00898807.xml
p6482
sg5
S'24549548'
p6483
sg7
S'24549548.xml'
p6484
sa(dp6485
g3
VNCT00899379.xml
p6486
sg5
S'9748025'
p6487
sg7
S'9748025.xml'
p6488
sa(dp6489
g3
VNCT00899574.xml
p6490
sg5
S'22767669'
p6491
sg7
S'22767669.xml'
p6492
sa(dp6493
g3
VNCT00900822.xml
p6494
sg5
S'20491816'
p6495
sg7
S'20491816.xml'
p6496
sa(dp6497
g3
VNCT00901576.xml
p6498
sg5
S'23519656'
p6499
sg7
S'23519656.xml'
p6500
sa(dp6501
g3
VNCT00903032.xml
p6502
sg5
S'24247275'
p6503
sg7
S'24247275.xml'
p6504
sa(dp6505
g3
VNCT00903682.xml
p6506
sg5
S'21150563'
p6507
sg7
S'21150563.xml'
p6508
sa(dp6509
g3
VNCT00904007.xml
p6510
sg5
S'24847084'
p6511
sg7
S'24847084.xml'
p6512
sa(dp6513
g3
VNCT00904826.xml
p6514
sg5
S'23623397'
p6515
sg7
S'23623397.xml'
p6516
sa(dp6517
g3
VNCT00905424.xml
p6518
sg5
S'24021497'
p6519
sg7
S'24021497.xml'
p6520
sa(dp6521
g3
VNCT00905827.xml
p6522
sg5
S'24959633'
p6523
sg7
S'24959633.xml'
p6524
sa(dp6525
g3
VNCT00906399.xml
p6526
sg5
S'24794721'
p6527
sg7
S'24794721.xml'
p6528
sa(dp6529
g3
VNCT00906425.xml
p6530
sg5
S'21722188'
p6531
sg7
S'21722188.xml'
p6532
sa(dp6533
g3
VNCT00907257.xml
p6534
sg5
S'20677537'
p6535
sg7
S'20677537.xml'
p6536
sa(dp6537
g3
VNCT00907621.xml
p6538
sg5
S'24228748'
p6539
sg7
S'24228748.xml'
p6540
sa(dp6541
g3
VNCT00907738.xml
p6542
sg5
S'19951879'
p6543
sg7
S'19951879.xml'
p6544
sa(dp6545
g3
VNCT00908882.xml
p6546
sg5
S'23644676'
p6547
sg7
S'23644676.xml'
p6548
sa(dp6549
g3
VNCT00909155.xml
p6550
sg5
S'24173657'
p6551
sg7
S'24173657.xml'
p6552
sa(dp6553
g3
VNCT00909649.xml
p6554
sg5
S'15792759'
p6555
sg7
S'15792759.xml'
p6556
sa(dp6557
g3
VNCT00910624.xml
p6558
sg5
S'24362076'
p6559
sg7
S'24362076.xml'
p6560
sa(dp6561
g3
VNCT00910858.xml
p6562
sg5
S'22936658'
p6563
sg7
S'22936658.xml'
p6564
sa(dp6565
g3
VNCT00911547.xml
p6566
sg5
S'10588598'
p6567
sg7
S'10588598.xml'
p6568
sa(dp6569
g3
VNCT00911612.xml
p6570
sg5
S'19879973'
p6571
sg7
S'19879973.xml'
p6572
sa(dp6573
g3
VNCT00911742.xml
p6574
sg5
S'16894407'
p6575
sg7
S'16894407.xml'
p6576
sa(dp6577
g3
VNCT00912158.xml
p6578
sg5
S'18646124'
p6579
sg7
S'18646124.xml'
p6580
sa(dp6581
g3
VNCT00912301.xml
p6582
sg5
S'20691689'
p6583
sg7
S'20691689.xml'
p6584
sa(dp6585
g3
VNCT00916357.xml
p6586
sg5
S'22136324'
p6587
sg7
S'22136324.xml'
p6588
sa(dp6589
g3
VNCT00919191.xml
p6590
sg5
S'20684151'
p6591
sg7
S'20684151.xml'
p6592
sa(dp6593
g3
VNCT00919867.xml
p6594
sg5
S'23615868'
p6595
sg7
S'23615868.xml'
p6596
sa(dp6597
g3
VNCT00920790.xml
p6598
sg5
S'22312108'
p6599
sg7
S'22312108.xml'
p6600
sa(dp6601
g3
VNCT00921518.xml
p6602
sg5
S'23553549'
p6603
sg7
S'23553549.xml'
p6604
sa(dp6605
g3
VNCT00922272.xml
p6606
sg5
S'23756608'
p6607
sg7
S'23756608.xml'
p6608
sa(dp6609
g3
VNCT00922935.xml
p6610
sg5
S'21435016'
p6611
sg7
S'21435016.xml'
p6612
sa(dp6613
g3
VNCT00925353.xml
p6614
sg5
S'22557743'
p6615
sg7
S'22557743.xml'
p6616
sa(dp6617
g3
VNCT00925704.xml
p6618
sg5
S'20921291'
p6619
sg7
S'20921291.xml'
p6620
sa(dp6621
g3
VNCT00927355.xml
p6622
sg5
S'23022285'
p6623
sg7
S'23022285.xml'
p6624
sa(dp6625
g3
VNCT00927849.xml
p6626
sg5
S'14769323'
p6627
sg7
S'14769323.xml'
p6628
sa(dp6629
g3
VNCT00927888.xml
p6630
sg5
S'22287376'
p6631
sg7
S'22287376.xml'
p6632
sa(dp6633
g3
VNCT00928057.xml
p6634
sg5
S'20429832'
p6635
sg7
S'20429832.xml'
p6636
sa(dp6637
g3
VNCT00928083.xml
p6638
sg5
S'22759078'
p6639
sg7
S'22759078.xml'
p6640
sa(dp6641
g3
VNCT00930982.xml
p6642
sg5
S'23018904'
p6643
sg7
S'23018904.xml'
p6644
sa(dp6645
g3
VNCT00932620.xml
p6646
sg5
S'21271793'
p6647
sg7
S'21271793.xml'
p6648
sa(dp6649
g3
VNCT00933335.xml
p6650
sg5
S'16110029'
p6651
sg7
S'16110029.xml'
p6652
sa(dp6653
g3
VNCT00934141.xml
p6654
sg5
S'23316787'
p6655
sg7
S'23316787.xml'
p6656
sa(dp6657
g3
VNCT00935818.xml
p6658
sg5
S'24399554'
p6659
sg7
S'24399554.xml'
p6660
sa(dp6661
g3
VNCT00935883.xml
p6662
sg5
S'24289920'
p6663
sg7
S'24289920.xml'
p6664
sa(dp6665
g3
VNCT00937105.xml
p6666
sg5
S'24240354'
p6667
sg7
S'24240354.xml'
p6668
sa(dp6669
g3
VNCT00938639.xml
p6670
sg5
S'19745216'
p6671
sg7
S'19745216.xml'
p6672
sa(dp6673
g3
VNCT00939029.xml
p6674
sg5
S'23873976'
p6675
sg7
S'23873976.xml'
p6676
sa(dp6677
g3
VNCT00940108.xml
p6678
sg5
S'20026597'
p6679
sg7
S'20026597.xml'
p6680
sa(dp6681
g3
VNCT00940927.xml
p6682
sg5
S'18583517'
p6683
sg7
S'18583517.xml'
p6684
sa(dp6685
g3
VNCT00942084.xml
p6686
sg5
S'18846389'
p6687
sg7
S'18846389.xml'
p6688
sa(dp6689
g3
VNCT00942994.xml
p6690
sg5
S'21414565'
p6691
sg7
S'21414565.xml'
p6692
sa(dp6693
g3
VNCT00943202.xml
p6694
sg5
S'22802432'
p6695
sg7
S'22802432.xml'
p6696
sa(dp6697
g3
VNCT00943397.xml
p6698
sg5
S'19449366'
p6699
sg7
S'19449366.xml'
p6700
sa(dp6701
g3
VNCT00943488.xml
p6702
sg5
S'22537984'
p6703
sg7
S'22537984.xml'
p6704
sa(dp6705
g3
VNCT00943631.xml
p6706
sg5
S'22537984'
p6707
sg7
S'22537984.xml'
p6708
sa(dp6709
g3
VNCT00943683.xml
p6710
sg5
S'15969897'
p6711
sg7
S'15969897.xml'
p6712
sa(dp6713
g3
VNCT00943852.xml
p6714
sg5
S'21130977'
p6715
sg7
S'21130977.xml'
p6716
sa(dp6717
g3
VNCT00944073.xml
p6718
sg5
S'25222307'
p6719
sg7
S'25222307.xml'
p6720
sa(dp6721
g3
VNCT00947765.xml
p6722
sg5
S'12671860'
p6723
sg7
S'12671860.xml'
p6724
sa(dp6725
g3
VNCT00947856.xml
p6726
sg5
S'24642247'
p6727
sg7
S'24642247.xml'
p6728
sa(dp6729
g3
VNCT00948155.xml
p6730
sg5
S'22695488'
p6731
sg7
S'22695488.xml'
p6732
sa(dp6733
g3
VNCT00950651.xml
p6734
sg5
S'17523716'
p6735
sg7
S'17523716.xml'
p6736
sa(dp6737
g3
VNCT00951808.xml
p6738
sg5
S'22231150'
p6739
sg7
S'22231150.xml'
p6740
sa(dp6741
g3
VNCT00951899.xml
p6742
sg5
S'23250357'
p6743
sg7
S'23250357.xml'
p6744
sa(dp6745
g3
VNCT00952068.xml
p6746
sg5
S'19070266'
p6747
sg7
S'19070266.xml'
p6748
sa(dp6749
g3
VNCT00952133.xml
p6750
sg5
S'21519222'
p6751
sg7
S'21519222.xml'
p6752
sa(dp6753
g3
VNCT00952341.xml
p6754
sg5
S'24276953'
p6755
sg7
S'24276953.xml'
p6756
sa(dp6757
g3
VNCT00952419.xml
p6758
sg5
S'21219979'
p6759
sg7
S'21219979.xml'
p6760
sa(dp6761
g3
VNCT00952523.xml
p6762
sg5
S'20684151'
p6763
sg7
S'20684151.xml'
p6764
sa(dp6765
g3
VNCT00953147.xml
p6766
sg5
S'22370530'
p6767
sg7
S'22370530.xml'
p6768
sa(dp6769
g3
VNCT00953524.xml
p6770
sg5
S'20018365'
p6771
sg7
S'20018365.xml'
p6772
sa(dp6773
g3
VNCT00954109.xml
p6774
sg5
S'21737826'
p6775
sg7
S'21737826.xml'
p6776
sa(dp6777
g3
VNCT00957593.xml
p6778
sg5
S'22989707'
p6779
sg7
S'22989707.xml'
p6780
sa(dp6781
g3
VNCT00958126.xml
p6782
sg5
S'20874515'
p6783
sg7
S'20874515.xml'
p6784
sa(dp6785
g3
VNCT00958308.xml
p6786
sg5
S'20145608'
p6787
sg7
S'20145608.xml'
p6788
sa(dp6789
g3
VNCT00958919.xml
p6790
sg5
S'21513438'
p6791
sg7
S'21513438.xml'
p6792
sa(dp6793
g3
VNCT00959764.xml
p6794
sg5
S'22437792'
p6795
sg7
S'22437792.xml'
p6796
sa(dp6797
g3
VNCT00960141.xml
p6798
sg5
S'15049402'
p6799
sg7
S'15049402.xml'
p6800
sa(dp6801
g3
VNCT00960661.xml
p6802
sg5
S'25011946'
p6803
sg7
S'25011946.xml'
p6804
sa(dp6805
g3
VNCT00961181.xml
p6806
sg5
S'22867706'
p6807
sg7
S'22867706.xml'
p6808
sa(dp6809
g3
VNCT00961311.xml
p6810
sg5
S'21351225'
p6811
sg7
S'21351225.xml'
p6812
sa(dp6813
g3
VNCT00961532.xml
p6814
sg5
S'25005444'
p6815
sg7
S'25005444.xml'
p6816
sa(dp6817
g3
VNCT00961636.xml
p6818
sg5
S'22683042'
p6819
sg7
S'22683042.xml'
p6820
sa(dp6821
g3
VNCT00962208.xml
p6822
sg5
S'22969068'
p6823
sg7
S'22969068.xml'
p6824
sa(dp6825
g3
VNCT00963157.xml
p6826
sg5
S'22782949'
p6827
sg7
S'22782949.xml'
p6828
sa(dp6829
g3
VNCT00963508.xml
p6830
sg5
S'17845167'
p6831
sg7
S'17845167.xml'
p6832
sa(dp6833
g3
VNCT00963599.xml
p6834
sg5
S'12086367'
p6835
sg7
S'12086367.xml'
p6836
sa(dp6837
g3
VNCT00963859.xml
p6838
sg5
S'21074799'
p6839
sg7
S'21074799.xml'
p6840
sa(dp6841
g3
VNCT00963924.xml
p6842
sg5
S'24485587'
p6843
sg7
S'24485587.xml'
p6844
sa(dp6845
g3
VNCT00964548.xml
p6846
sg5
S'21454813'
p6847
sg7
S'21454813.xml'
p6848
sa(dp6849
g3
VNCT00965458.xml
p6850
sg5
S'24622414'
p6851
sg7
S'24622414.xml'
p6852
sa(dp6853
g3
VNCT00966550.xml
p6854
sg5
S'22331646'
p6855
sg7
S'22331646.xml'
p6856
sa(dp6857
g3
VNCT00967668.xml
p6858
sg5
S'23041618'
p6859
sg7
S'23041618.xml'
p6860
sa(dp6861
g3
VNCT00968149.xml
p6862
sg5
S'19449366'
p6863
sg7
S'19449366.xml'
p6864
sa(dp6865
g3
VNCT00968201.xml
p6866
sg5
S'11533366'
p6867
sg7
S'11533366.xml'
p6868
sa(dp6869
g3
VNCT00970294.xml
p6870
sg5
S'20530663'
p6871
sg7
S'20530663.xml'
p6872
sa(dp6873
g3
VNCT00970814.xml
p6874
sg5
S'22324516'
p6875
sg7
S'22324516.xml'
p6876
sa(dp6877
g3
VNCT00971295.xml
p6878
sg5
S'19356391'
p6879
sg7
S'19356391.xml'
p6880
sa(dp6881
g3
VNCT00971932.xml
p6882
sg5
S'23479384'
p6883
sg7
S'23479384.xml'
p6884
sa(dp6885
g3
VNCT00973700.xml
p6886
sg5
S'21285531'
p6887
sg7
S'21285531.xml'
p6888
sa(dp6889
g3
VNCT00975130.xml
p6890
sg5
S'23740226'
p6891
sg7
S'23740226.xml'
p6892
sa(dp6893
g3
VNCT00977314.xml
p6894
sg5
S'21221045'
p6895
sg7
S'21221045.xml'
p6896
sa(dp6897
g3
VNCT00977769.xml
p6898
sg5
S'23598289'
p6899
sg7
S'23598289.xml'
p6900
sa(dp6901
g3
VNCT00978042.xml
p6902
sg5
S'24093664'
p6903
sg7
S'24093664.xml'
p6904
sa(dp6905
g3
VNCT00978120.xml
p6906
sg5
S'21145578'
p6907
sg7
S'21145578.xml'
p6908
sa(dp6909
g3
VNCT00979069.xml
p6910
sg5
S'24425525'
p6911
sg7
S'24425525.xml'
p6912
sa(dp6913
g3
VNCT00979628.xml
p6914
sg5
S'23435159'
p6915
sg7
S'23435159.xml'
p6916
sa(dp6917
g3
VNCT00979901.xml
p6918
sg5
S'12100048'
p6919
sg7
S'12100048.xml'
p6920
sa(dp6921
g3
VNCT00980044.xml
p6922
sg5
S'23755929'
p6923
sg7
S'23755929.xml'
p6924
sa(dp6925
g3
VNCT00980980.xml
p6926
sg5
S'23718152'
p6927
sg7
S'23718152.xml'
p6928
sa(dp6929
g3
VNCT00981175.xml
p6930
sg5
S'21150279'
p6931
sg7
S'21150279.xml'
p6932
sa(dp6933
g3
VNCT00981461.xml
p6934
sg5
S'19366270'
p6935
sg7
S'19366270.xml'
p6936
sa(dp6937
g3
VNCT00982137.xml
p6938
sg5
S'20864814'
p6939
sg7
S'20864814.xml'
p6940
sa(dp6941
g3
VNCT00983983.xml
p6942
sg5
S'24582471'
p6943
sg7
S'24582471.xml'
p6944
sa(dp6945
g3
VNCT00984256.xml
p6946
sg5
S'22052893'
p6947
sg7
S'22052893.xml'
p6948
sa(dp6949
g3
VNCT00984295.xml
p6950
sg5
S'16567978'
p6951
sg7
S'16567978.xml'
p6952
sa(dp6953
g3
VNCT00984867.xml
p6954
sg5
S'24144654'
p6955
sg7
S'24144654.xml'
p6956
sa(dp6957
g3
VNCT00985153.xml
p6958
sg5
S'16804432'
p6959
sg7
S'16804432.xml'
p6960
sa(dp6961
g3
VNCT00985166.xml
p6962
sg5
S'16452343'
p6963
sg7
S'16452343.xml'
p6964
sa(dp6965
g3
VNCT00986232.xml
p6966
sg5
S'16094218'
p6967
sg7
S'16094218.xml'
p6968
sa(dp6969
g3
VNCT00986986.xml
p6970
sg5
S'20216298'
p6971
sg7
S'20216298.xml'
p6972
sa(dp6973
g3
VNCT00988117.xml
p6974
sg5
S'23847120'
p6975
sg7
S'23847120.xml'
p6976
sa(dp6977
g3
VNCT00988247.xml
p6978
sg5
S'22737708'
p6979
sg7
S'22737708.xml'
p6980
sa(dp6981
g3
VNCT00989950.xml
p6982
sg5
S'22115000'
p6983
sg7
S'22115000.xml'
p6984
sa(dp6985
g3
VNCT00990106.xml
p6986
sg5
S'23846759'
p6987
sg7
S'23846759.xml'
p6988
sa(dp6989
g3
VNCT00991081.xml
p6990
sg5
S'22949583'
p6991
sg7
S'22949583.xml'
p6992
sa(dp6993
g3
VNCT00991809.xml
p6994
sg5
S'23446076'
p6995
sg7
S'23446076.xml'
p6996
sa(dp6997
g3
VNCT00992264.xml
p6998
sg5
S'23529377'
p6999
sg7
S'23529377.xml'
p7000
sa(dp7001
g3
VNCT00992433.xml
p7002
sg5
S'22275399'
p7003
sg7
S'22275399.xml'
p7004
sa(dp7005
g3
VNCT00993044.xml
p7006
sg5
S'23894304'
p7007
sg7
S'23894304.xml'
p7008
sa(dp7009
g3
VNCT00993148.xml
p7010
sg5
S'23797691'
p7011
sg7
S'23797691.xml'
p7012
sa(dp7013
g3
VNCT00993824.xml
p7014
sg5
S'18852398'
p7015
sg7
S'18852398.xml'
p7016
sa(dp7017
g3
VNCT00995488.xml
p7018
sg5
S'24318901'
p7019
sg7
S'24318901.xml'
p7020
sa(dp7021
g3
VNCT00995774.xml
p7022
sg5
S'24297763'
p7023
sg7
S'24297763.xml'
p7024
sa(dp7025
g3
VNCT00996580.xml
p7026
sg5
S'18672111'
p7027
sg7
S'18672111.xml'
p7028
sa(dp7029
g3
VNCT00997113.xml
p7030
sg5
S'23701339'
p7031
sg7
S'23701339.xml'
p7032
sa(dp7033
g3
VNCT00997321.xml
p7034
sg5
S'20624140'
p7035
sg7
S'20624140.xml'
p7036
sa(dp7037
g3
VNCT00997984.xml
p7038
sg5
S'23972694'
p7039
sg7
S'23972694.xml'
p7040
sa(dp7041
g3
VNCT00999544.xml
p7042
sg5
S'22260216'
p7043
sg7
S'22260216.xml'
p7044
sa(dp7045
g3
VNCT01001546.xml
p7046
sg5
S'22038468'
p7047
sg7
S'22038468.xml'
p7048
sa(dp7049
g3
VNCT01001767.xml
p7050
sg5
S'21870979'
p7051
sg7
S'21870979.xml'
p7052
sa(dp7053
g3
VNCT01003275.xml
p7054
sg5
S'22913981'
p7055
sg7
S'22913981.xml'
p7056
sa(dp7057
g3
VNCT01004848.xml
p7058
sg5
S'20147680'
p7059
sg7
S'20147680.xml'
p7060
sa(dp7061
g3
VNCT01005901.xml
p7062
sg5
S'22151296'
p7063
sg7
S'22151296.xml'
p7064
sa(dp7065
g3
VNCT01007253.xml
p7066
sg5
S'23406601'
p7067
sg7
S'23406601.xml'
p7068
sa(dp7069
g3
VNCT01008904.xml
p7070
sg5
S'21271347'
p7071
sg7
S'21271347.xml'
p7072
sa(dp7073
g3
VNCT01010204.xml
p7074
sg5
S'25006684'
p7075
sg7
S'25006684.xml'
p7076
sa(dp7077
g3
VNCT01010750.xml
p7078
sg5
S'24297663'
p7079
sg7
S'24297663.xml'
p7080
sa(dp7081
g3
VNCT01010971.xml
p7082
sg5
S'22370531'
p7083
sg7
S'22370531.xml'
p7084
sa(dp7085
g3
VNCT01011465.xml
p7086
sg5
S'22387929'
p7087
sg7
S'22387929.xml'
p7088
sa(dp7089
g3
VNCT01011907.xml
p7090
sg5
S'22547331'
p7091
sg7
S'22547331.xml'
p7092
sa(dp7093
g3
VNCT01012219.xml
p7094
sg5
S'24206527'
p7095
sg7
S'24206527.xml'
p7096
sa(dp7097
g3
VNCT01012388.xml
p7098
sg5
S'19708876'
p7099
sg7
S'19708876.xml'
p7100
sa(dp7101
g3
VNCT01012661.xml
p7102
sg5
S'20100272'
p7103
sg7
S'20100272.xml'
p7104
sa(dp7105
g3
VNCT01012973.xml
p7106
sg5
S'23298885'
p7107
sg7
S'23298885.xml'
p7108
sa(dp7109
g3
VNCT01013844.xml
p7110
sg5
S'16618863'
p7111
sg7
S'16618863.xml'
p7112
sa(dp7113
g3
VNCT01014013.xml
p7114
sg5
S'22563210'
p7115
sg7
S'22563210.xml'
p7116
sa(dp7117
g3
VNCT01014351.xml
p7118
sg5
S'23969699'
p7119
sg7
S'23969699.xml'
p7120
sa(dp7121
g3
VNCT01015820.xml
p7122
sg5
S'24861243'
p7123
sg7
S'24861243.xml'
p7124
sa(dp7125
g3
VNCT01016106.xml
p7126
sg5
S'24920311'
p7127
sg7
S'24920311.xml'
p7128
sa(dp7129
g3
VNCT01017549.xml
p7130
sg5
S'20375833'
p7131
sg7
S'20375833.xml'
p7132
sa(dp7133
g3
VNCT01018394.xml
p7134
sg5
S'23454876'
p7135
sg7
S'23454876.xml'
p7136
sa(dp7137
g3
VNCT01018732.xml
p7138
sg5
S'21177912'
p7139
sg7
S'21177912.xml'
p7140
sa(dp7141
g3
VNCT01021306.xml
p7142
sg5
S'24080932'
p7143
sg7
S'24080932.xml'
p7144
sa(dp7145
g3
VNCT01022190.xml
p7146
sg5
S'23359100'
p7147
sg7
S'23359100.xml'
p7148
sa(dp7149
g3
VNCT01023256.xml
p7150
sg5
S'24534756'
p7151
sg7
S'24534756.xml'
p7152
sa(dp7153
g3
VNCT01024972.xml
p7154
sg5
S'25344064'
p7155
sg7
S'25344064.xml'
p7156
sa(dp7157
g3
VNCT01025830.xml
p7158
sg5
S'19096711'
p7159
sg7
S'19096711.xml'
p7160
sa(dp7161
g3
VNCT01027195.xml
p7162
sg5
S'21411700'
p7163
sg7
S'21411700.xml'
p7164
sa(dp7165
g3
VNCT01027286.xml
p7166
sg5
S'22035976'
p7167
sg7
S'22035976.xml'
p7168
sa(dp7169
g3
VNCT01027364.xml
p7170
sg5
S'24304002'
p7171
sg7
S'24304002.xml'
p7172
sa(dp7173
g3
VNCT01027780.xml
p7174
sg5
S'23697871'
p7175
sg7
S'23697871.xml'
p7176
sa(dp7177
g3
VNCT01028352.xml
p7178
sg5
S'21692065'
p7179
sg7
S'21692065.xml'
p7180
sa(dp7181
g3
VNCT01028391.xml
p7182
sg5
S'21235696'
p7183
sg7
S'21235696.xml'
p7184
sa(dp7185
g3
VNCT01030458.xml
p7186
sg5
S'23803591'
p7187
sg7
S'23803591.xml'
p7188
sa(dp7189
g3
VNCT01032018.xml
p7190
sg5
S'23471421'
p7191
sg7
S'23471421.xml'
p7192
sa(dp7193
g3
VNCT01032733.xml
p7194
sg5
S'21753869'
p7195
sg7
S'21753869.xml'
p7196
sa(dp7197
g3
VNCT01033383.xml
p7198
sg5
S'22690994'
p7199
sg7
S'22690994.xml'
p7200
sa(dp7201
g3
VNCT01034540.xml
p7202
sg5
S'21775113'
p7203
sg7
S'21775113.xml'
p7204
sa(dp7205
g3
VNCT01037127.xml
p7206
sg5
S'23248257'
p7207
sg7
S'23248257.xml'
p7208
sa(dp7209
g3
VNCT01037192.xml
p7210
sg5
S'11751780'
p7211
sg7
S'11751780.xml'
p7212
sa(dp7213
g3
VNCT01038336.xml
p7214
sg5
S'22773265'
p7215
sg7
S'22773265.xml'
p7216
sa(dp7217
g3
VNCT01040780.xml
p7218
sg5
S'23948351'
p7219
sg7
S'23948351.xml'
p7220
sa(dp7221
g3
VNCT01040832.xml
p7222
sg5
S'24894651'
p7223
sg7
S'24894651.xml'
p7224
sa(dp7225
g3
VNCT01042145.xml
p7226
sg5
S'24092872'
p7227
sg7
S'24092872.xml'
p7228
sa(dp7229
g3
VNCT01044030.xml
p7230
sg5
S'24394686'
p7231
sg7
S'24394686.xml'
p7232
sa(dp7233
g3
VNCT01044056.xml
p7234
sg5
S'16102549'
p7235
sg7
S'16102549.xml'
p7236
sa(dp7237
g3
VNCT01045187.xml
p7238
sg5
S'20646289'
p7239
sg7
S'20646289.xml'
p7240
sa(dp7241
g3
VNCT01046682.xml
p7242
sg5
S'20613460'
p7243
sg7
S'20613460.xml'
p7244
sa(dp7245
g3
VNCT01047709.xml
p7246
sg5
S'21306949'
p7247
sg7
S'21306949.xml'
p7248
sa(dp7249
g3
VNCT01048606.xml
p7250
sg5
S'22947543'
p7251
sg7
S'22947543.xml'
p7252
sa(dp7253
g3
VNCT01048697.xml
p7254
sg5
S'22155817'
p7255
sg7
S'22155817.xml'
p7256
sa(dp7257
g3
VNCT01050543.xml
p7258
sg5
S'24427455'
p7259
sg7
S'24427455.xml'
p7260
sa(dp7261
g3
VNCT01050569.xml
p7262
sg5
S'23603206'
p7263
sg7
S'23603206.xml'
p7264
sa(dp7265
g3
VNCT01052038.xml
p7266
sg5
S'21669954'
p7267
sg7
S'21669954.xml'
p7268
sa(dp7269
g3
VNCT01052545.xml
p7270
sg5
S'22232145'
p7271
sg7
S'22232145.xml'
p7272
sa(dp7273
g3
VNCT01055704.xml
p7274
sg5
S'20839388'
p7275
sg7
S'20839388.xml'
p7276
sa(dp7277
g3
VNCT01056107.xml
p7278
sg5
S'22517769'
p7279
sg7
S'22517769.xml'
p7280
sa(dp7281
g3
VNCT01056640.xml
p7282
sg5
S'22507696'
p7283
sg7
S'22507696.xml'
p7284
sa(dp7285
g3
VNCT01058304.xml
p7286
sg5
S'23279750'
p7287
sg7
S'23279750.xml'
p7288
sa(dp7289
g3
VNCT01058993.xml
p7290
sg5
S'21835955'
p7291
sg7
S'21835955.xml'
p7292
sa(dp7293
g3
VNCT01060540.xml
p7294
sg5
S'22852560'
p7295
sg7
S'22852560.xml'
p7296
sa(dp7297
g3
VNCT01063049.xml
p7298
sg5
S'23238266'
p7299
sg7
S'23238266.xml'
p7300
sa(dp7301
g3
VNCT01063712.xml
p7302
sg5
S'21774843'
p7303
sg7
S'21774843.xml'
p7304
sa(dp7305
g3
VNCT01063764.xml
p7306
sg5
S'24018745'
p7307
sg7
S'24018745.xml'
p7308
sa(dp7309
g3
VNCT01065350.xml
p7310
sg5
S'22743378'
p7311
sg7
S'22743378.xml'
p7312
sa(dp7313
g3
VNCT01072331.xml
p7314
sg5
S'22776014'
p7315
sg7
S'22776014.xml'
p7316
sa(dp7317
g3
VNCT01072929.xml
p7318
sg5
S'25099397'
p7319
sg7
S'25099397.xml'
p7320
sa(dp7321
g3
VNCT01073293.xml
p7322
sg5
S'25831420'
p7323
sg7
S'25831420.xml'
p7324
sa(dp7325
g3
VNCT01073566.xml
p7326
sg5
S'21732797'
p7327
sg7
S'21732797.xml'
p7328
sa(dp7329
g3
VNCT01073657.xml
p7330
sg5
S'22246119'
p7331
sg7
S'22246119.xml'
p7332
sa(dp7333
g3
VNCT01075152.xml
p7334
sg5
S'24963568'
p7335
sg7
S'24963568.xml'
p7336
sa(dp7337
g3
VNCT01075984.xml
p7338
sg5
S'24733463'
p7339
sg7
S'24733463.xml'
p7340
sa(dp7341
g3
VNCT01076283.xml
p7342
sg5
S'23262301'
p7343
sg7
S'23262301.xml'
p7344
sa(dp7345
g3
VNCT01076452.xml
p7346
sg5
S'19126811'
p7347
sg7
S'19126811.xml'
p7348
sa(dp7349
g3
VNCT01080326.xml
p7350
sg5
S'23355151'
p7351
sg7
S'23355151.xml'
p7352
sa(dp7353
g3
VNCT01085500.xml
p7354
sg5
S'21865947'
p7355
sg7
S'21865947.xml'
p7356
sa(dp7357
g3
VNCT01087905.xml
p7358
sg5
S'22992296'
p7359
sg7
S'22992296.xml'
p7360
sa(dp7361
g3
VNCT01087957.xml
p7362
sg5
S'24526708'
p7363
sg7
S'24526708.xml'
p7364
sa(dp7365
g3
VNCT01087996.xml
p7366
sg5
S'23117550'
p7367
sg7
S'23117550.xml'
p7368
sa(dp7369
g3
VNCT01088438.xml
p7370
sg5
S'20841532'
p7371
sg7
S'20841532.xml'
p7372
sa(dp7373
g3
VNCT01092338.xml
p7374
sg5
S'23059649'
p7375
sg7
S'23059649.xml'
p7376
sa(dp7377
g3
VNCT01092702.xml
p7378
sg5
S'20947286'
p7379
sg7
S'20947286.xml'
p7380
sa(dp7381
g3
VNCT01093599.xml
p7382
sg5
S'24611852'
p7383
sg7
S'24611852.xml'
p7384
sa(dp7385
g3
VNCT01093651.xml
p7386
sg5
S'23264399'
p7387
sg7
S'23264399.xml'
p7388
sa(dp7389
g3
VNCT01094808.xml
p7390
sg5
S'21596994'
p7391
sg7
S'21596994.xml'
p7392
sa(dp7393
g3
VNCT01095796.xml
p7394
sg5
S'22748591'
p7395
sg7
S'22748591.xml'
p7396
sa(dp7397
g3
VNCT01097616.xml
p7398
sg5
S'25526970'
p7399
sg7
S'25526970.xml'
p7400
sa(dp7401
g3
VNCT01097629.xml
p7402
sg5
S'25526970'
p7403
sg7
S'25526970.xml'
p7404
sa(dp7405
g3
VNCT01098071.xml
p7406
sg5
S'23010795'
p7407
sg7
S'23010795.xml'
p7408
sa(dp7409
g3
VNCT01099475.xml
p7410
sg5
S'21147188'
p7411
sg7
S'21147188.xml'
p7412
sa(dp7413
g3
VNCT01101022.xml
p7414
sg5
S'23945447'
p7415
sg7
S'23945447.xml'
p7416
sa(dp7417
g3
VNCT01103323.xml
p7418
sg5
S'23177514'
p7419
sg7
S'23177514.xml'
p7420
sa(dp7421
g3
VNCT01106040.xml
p7422
sg5
S'23504141'
p7423
sg7
S'23504141.xml'
p7424
sa(dp7425
g3
VNCT01106326.xml
p7426
sg5
S'21599562'
p7427
sg7
S'21599562.xml'
p7428
sa(dp7429
g3
VNCT01106430.xml
p7430
sg5
S'23959815'
p7431
sg7
S'23959815.xml'
p7432
sa(dp7433
g3
VNCT01106586.xml
p7434
sg5
S'22748590'
p7435
sg7
S'22748590.xml'
p7436
sa(dp7437
g3
VNCT01107730.xml
p7438
sg5
S'19446899'
p7439
sg7
S'19446899.xml'
p7440
sa(dp7441
g3
VNCT01108406.xml
p7442
sg5
S'21799455'
p7443
sg7
S'21799455.xml'
p7444
sa(dp7445
g3
VNCT01110915.xml
p7446
sg5
S'23333721'
p7447
sg7
S'23333721.xml'
p7448
sa(dp7449
g3
VNCT01111149.xml
p7450
sg5
S'23507358'
p7451
sg7
S'23507358.xml'
p7452
sa(dp7453
g3
VNCT01111851.xml
p7454
sg5
S'22739139'
p7455
sg7
S'22739139.xml'
p7456
sa(dp7457
g3
VNCT01112241.xml
p7458
sg5
S'20724742'
p7459
sg7
S'20724742.xml'
p7460
sa(dp7461
g3
VNCT01112683.xml
p7462
sg5
S'22806212'
p7463
sg7
S'22806212.xml'
p7464
sa(dp7465
g3
VNCT01114516.xml
p7466
sg5
S'24807330'
p7467
sg7
S'24807330.xml'
p7468
sa(dp7469
g3
VNCT01115660.xml
p7470
sg5
S'22830539'
p7471
sg7
S'22830539.xml'
p7472
sa(dp7473
g3
VNCT01117857.xml
p7474
sg5
S'23602542'
p7475
sg7
S'23602542.xml'
p7476
sa(dp7477
g3
VNCT01118221.xml
p7478
sg5
S'24705678'
p7479
sg7
S'24705678.xml'
p7480
sa(dp7481
g3
VNCT01120899.xml
p7482
sg5
S'22589436'
p7483
sg7
S'22589436.xml'
p7484
sa(dp7485
g3
VNCT01121146.xml
p7486
sg5
S'17823032'
p7487
sg7
S'17823032.xml'
p7488
sa(dp7489
g3
VNCT01123941.xml
p7490
sg5
S'21980445'
p7491
sg7
S'21980445.xml'
p7492
sa(dp7493
g3
VNCT01124292.xml
p7494
sg5
S'21652288'
p7495
sg7
S'21652288.xml'
p7496
sa(dp7497
g3
VNCT01124448.xml
p7498
sg5
S'24880136'
p7499
sg7
S'24880136.xml'
p7500
sa(dp7501
g3
VNCT01126359.xml
p7502
sg5
S'23343829'
p7503
sg7
S'23343829.xml'
p7504
sa(dp7505
g3
VNCT01127737.xml
p7506
sg5
S'21339418'
p7507
sg7
S'21339418.xml'
p7508
sa(dp7509
g3
VNCT01128179.xml
p7510
sg5
S'24885942'
p7511
sg7
S'24885942.xml'
p7512
sa(dp7513
g3
VNCT01128192.xml
p7514
sg5
S'23733372'
p7515
sg7
S'23733372.xml'
p7516
sa(dp7517
g3
VNCT01129284.xml
p7518
sg5
S'22722778'
p7519
sg7
S'22722778.xml'
p7520
sa(dp7521
g3
VNCT01129622.xml
p7522
sg5
S'22258545'
p7523
sg7
S'22258545.xml'
p7524
sa(dp7525
g3
VNCT01130740.xml
p7526
sg5
S'22530979'
p7527
sg7
S'22530979.xml'
p7528
sa(dp7529
g3
VNCT01131182.xml
p7530
sg5
S'21951832'
p7531
sg7
S'21951832.xml'
p7532
sa(dp7533
g3
VNCT01132846.xml
p7534
sg5
S'24247300'
p7535
sg7
S'24247300.xml'
p7536
sa(dp7537
g3
VNCT01141205.xml
p7538
sg5
S'23634822'
p7539
sg7
S'23634822.xml'
p7540
sa(dp7541
g3
VNCT01141595.xml
p7542
sg5
S'23462988'
p7543
sg7
S'23462988.xml'
p7544
sa(dp7545
g3
VNCT01143077.xml
p7546
sg5
S'23473350'
p7547
sg7
S'23473350.xml'
p7548
sa(dp7549
g3
VNCT01144052.xml
p7550
sg5
S'23915113'
p7551
sg7
S'23915113.xml'
p7552
sa(dp7553
g3
VNCT01147341.xml
p7554
sg5
S'24972708'
p7555
sg7
S'24972708.xml'
p7556
sa(dp7557
g3
VNCT01152359.xml
p7558
sg5
S'24368474'
p7559
sg7
S'24368474.xml'
p7560
sa(dp7561
g3
VNCT01152580.xml
p7562
sg5
S'22220591'
p7563
sg7
S'22220591.xml'
p7564
sa(dp7565
g3
VNCT01154296.xml
p7566
sg5
S'24150466'
p7567
sg7
S'24150466.xml'
p7568
sa(dp7569
g3
VNCT01159431.xml
p7570
sg5
S'23365066'
p7571
sg7
S'23365066.xml'
p7572
sa(dp7573
g3
VNCT01160484.xml
p7574
sg5
S'22354206'
p7575
sg7
S'22354206.xml'
p7576
sa(dp7577
g3
VNCT01160770.xml
p7578
sg5
S'23141144'
p7579
sg7
S'23141144.xml'
p7580
sa(dp7581
g3
VNCT01161225.xml
p7582
sg5
S'19142893'
p7583
sg7
S'19142893.xml'
p7584
sa(dp7585
g3
VNCT01163214.xml
p7586
sg5
S'24706022'
p7587
sg7
S'24706022.xml'
p7588
sa(dp7589
g3
VNCT01165320.xml
p7590
sg5
S'25701307'
p7591
sg7
S'25701307.xml'
p7592
sa(dp7593
g3
VNCT01167582.xml
p7594
sg5
S'23708168'
p7595
sg7
S'23708168.xml'
p7596
sa(dp7597
g3
VNCT01168687.xml
p7598
sg5
S'11496122'
p7599
sg7
S'11496122.xml'
p7600
sa(dp7601
g3
VNCT01169519.xml
p7602
sg5
S'23823195'
p7603
sg7
S'23823195.xml'
p7604
sa(dp7605
g3
VNCT01170533.xml
p7606
sg5
S'20858862'
p7607
sg7
S'20858862.xml'
p7608
sa(dp7609
g3
VNCT01172418.xml
p7610
sg5
S'22027927'
p7611
sg7
S'22027927.xml'
p7612
sa(dp7613
g3
VNCT01174446.xml
p7614
sg5
S'23834666'
p7615
sg7
S'23834666.xml'
p7616
sa(dp7617
g3
VNCT01175369.xml
p7618
sg5
S'21383275'
p7619
sg7
S'21383275.xml'
p7620
sa(dp7621
g3
VNCT01175434.xml
p7622
sg5
S'22785264'
p7623
sg7
S'22785264.xml'
p7624
sa(dp7625
g3
VNCT01177956.xml
p7626
sg5
S'24710768'
p7627
sg7
S'24710768.xml'
p7628
sa(dp7629
g3
VNCT01181128.xml
p7630
sg5
S'24227821'
p7631
sg7
S'24227821.xml'
p7632
sa(dp7633
g3
VNCT01182480.xml
p7634
sg5
S'22435883'
p7635
sg7
S'22435883.xml'
p7636
sa(dp7637
g3
VNCT01183728.xml
p7638
sg5
S'23680930'
p7639
sg7
S'23680930.xml'
p7640
sa(dp7641
g3
VNCT01184079.xml
p7642
sg5
S'24342252'
p7643
sg7
S'24342252.xml'
p7644
sa(dp7645
g3
VNCT01184846.xml
p7646
sg5
S'23781960'
p7647
sg7
S'23781960.xml'
p7648
sa(dp7649
g3
VNCT01187498.xml
p7650
sg5
S'22092152'
p7651
sg7
S'22092152.xml'
p7652
sa(dp7653
g3
VNCT01189110.xml
p7654
sg5
S'23288282'
p7655
sg7
S'23288282.xml'
p7656
sa(dp7657
g3
VNCT01190085.xml
p7658
sg5
S'24775991'
p7659
sg7
S'24775991.xml'
p7660
sa(dp7661
g3
VNCT01193686.xml
p7662
sg5
S'22767074'
p7663
sg7
S'22767074.xml'
p7664
sa(dp7665
g3
VNCT01193907.xml
p7666
sg5
S'21980445'
p7667
sg7
S'21980445.xml'
p7668
sa(dp7669
g3
VNCT01194089.xml
p7670
sg5
S'25190522'
p7671
sg7
S'25190522.xml'
p7672
sa(dp7673
g3
VNCT01195623.xml
p7674
sg5
S'15810046'
p7675
sg7
S'15810046.xml'
p7676
sa(dp7677
g3
VNCT01198509.xml
p7678
sg5
S'22576262'
p7679
sg7
S'22576262.xml'
p7680
sa(dp7681
g3
VNCT01198691.xml
p7682
sg5
S'23921089'
p7683
sg7
S'23921089.xml'
p7684
sa(dp7685
g3
VNCT01199705.xml
p7686
sg5
S'24504846'
p7687
sg7
S'24504846.xml'
p7688
sa(dp7689
g3
VNCT01200498.xml
p7690
sg5
S'22475363'
p7691
sg7
S'22475363.xml'
p7692
sa(dp7693
g3
VNCT01201772.xml
p7694
sg5
S'22554598'
p7695
sg7
S'22554598.xml'
p7696
sa(dp7697
g3
VNCT01201785.xml
p7698
sg5
S'21386092'
p7699
sg7
S'21386092.xml'
p7700
sa(dp7701
g3
VNCT01202656.xml
p7702
sg5
S'24424357'
p7703
sg7
S'24424357.xml'
p7704
sa(dp7705
g3
VNCT01206322.xml
p7706
sg5
S'24101698'
p7707
sg7
S'24101698.xml'
p7708
sa(dp7709
g3
VNCT01206738.xml
p7710
sg5
S'22306007'
p7711
sg7
S'22306007.xml'
p7712
sa(dp7713
g3
VNCT01208961.xml
p7714
sg5
S'23312053'
p7715
sg7
S'23312053.xml'
p7716
sa(dp7717
g3
VNCT01215292.xml
p7718
sg5
S'23348398'
p7719
sg7
S'23348398.xml'
p7720
sa(dp7721
g3
VNCT01218958.xml
p7722
sg5
S'15811981'
p7723
sg7
S'15811981.xml'
p7724
sa(dp7725
g3
VNCT01219985.xml
p7726
sg5
S'22382308'
p7727
sg7
S'22382308.xml'
p7728
sa(dp7729
g3
VNCT01220557.xml
p7730
sg5
S'24210673'
p7731
sg7
S'24210673.xml'
p7732
sa(dp7733
g3
VNCT01221090.xml
p7734
sg5
S'20863646'
p7735
sg7
S'20863646.xml'
p7736
sa(dp7737
g3
VNCT01221285.xml
p7738
sg5
S'24184147'
p7739
sg7
S'24184147.xml'
p7740
sa(dp7741
g3
VNCT01222390.xml
p7742
sg5
S'22286418'
p7743
sg7
S'22286418.xml'
p7744
sa(dp7745
g3
VNCT01222585.xml
p7746
sg5
S'23587979'
p7747
sg7
S'23587979.xml'
p7748
sa(dp7749
g3
VNCT01223469.xml
p7750
sg5
S'22820056'
p7751
sg7
S'22820056.xml'
p7752
sa(dp7753
g3
VNCT01229176.xml
p7754
sg5
S'24290843'
p7755
sg7
S'24290843.xml'
p7756
sa(dp7757
g3
VNCT01235338.xml
p7758
sg5
S'23512639'
p7759
sg7
S'23512639.xml'
p7760
sa(dp7761
g3
VNCT01236365.xml
p7762
sg5
S'25418907'
p7763
sg7
S'25418907.xml'
p7764
sa(dp7765
g3
VNCT01240551.xml
p7766
sg5
S'22728263'
p7767
sg7
S'22728263.xml'
p7768
sa(dp7769
g3
VNCT01244490.xml
p7770
sg5
S'25453486'
p7771
sg7
S'25453486.xml'
p7772
sa(dp7773
g3
VNCT01245270.xml
p7774
sg5
S'25191571'
p7775
sg7
S'25191571.xml'
p7776
sa(dp7777
g3
VNCT01253174.xml
p7778
sg5
S'22909145'
p7779
sg7
S'22909145.xml'
p7780
sa(dp7781
g3
VNCT01253187.xml
p7782
sg5
S'22067789'
p7783
sg7
S'22067789.xml'
p7784
sa(dp7785
g3
VNCT01253408.xml
p7786
sg5
S'22288893'
p7787
sg7
S'22288893.xml'
p7788
sa(dp7789
g3
VNCT01253577.xml
p7790
sg5
S'22550039'
p7791
sg7
S'22550039.xml'
p7792
sa(dp7793
g3
VNCT01254045.xml
p7794
sg5
S'21862226'
p7795
sg7
S'21862226.xml'
p7796
sa(dp7797
g3
VNCT01254344.xml
p7798
sg5
S'25151205'
p7799
sg7
S'25151205.xml'
p7800
sa(dp7801
g3
VNCT01255449.xml
p7802
sg5
S'22898044'
p7803
sg7
S'22898044.xml'
p7804
sa(dp7805
g3
VNCT01258660.xml
p7806
sg5
S'23610531'
p7807
sg7
S'23610531.xml'
p7808
sa(dp7809
g3
VNCT01259115.xml
p7810
sg5
S'22845044'
p7811
sg7
S'22845044.xml'
p7812
sa(dp7813
g3
VNCT01260350.xml
p7814
sg5
S'24262278'
p7815
sg7
S'24262278.xml'
p7816
sa(dp7817
g3
VNCT01260883.xml
p7818
sg5
S'17456651'
p7819
sg7
S'17456651.xml'
p7820
sa(dp7821
g3
VNCT01263639.xml
p7822
sg5
S'24158181'
p7823
sg7
S'24158181.xml'
p7824
sa(dp7825
g3
VNCT01263691.xml
p7826
sg5
S'23701746'
p7827
sg7
S'23701746.xml'
p7828
sa(dp7829
g3
VNCT01263717.xml
p7830
sg5
S'25038357'
p7831
sg7
S'25038357.xml'
p7832
sa(dp7833
g3
VNCT01264614.xml
p7834
sg5
S'22136405'
p7835
sg7
S'22136405.xml'
p7836
sa(dp7837
g3
VNCT01265524.xml
p7838
sg5
S'22613585'
p7839
sg7
S'22613585.xml'
p7840
sa(dp7841
g3
VNCT01265615.xml
p7842
sg5
S'22839442'
p7843
sg7
S'22839442.xml'
p7844
sa(dp7845
g3
VNCT01267227.xml
p7846
sg5
S'19549798'
p7847
sg7
S'19549798.xml'
p7848
sa(dp7849
g3
VNCT01267994.xml
p7850
sg5
S'25133431'
p7851
sg7
S'25133431.xml'
p7852
sa(dp7853
g3
VNCT01268111.xml
p7854
sg5
S'23111651'
p7855
sg7
S'23111651.xml'
p7856
sa(dp7857
g3
VNCT01268683.xml
p7858
sg5
S'24193798'
p7859
sg7
S'24193798.xml'
p7860
sa(dp7861
g3
VNCT01270126.xml
p7862
sg5
S'22124039'
p7863
sg7
S'22124039.xml'
p7864
sa(dp7865
g3
VNCT01270139.xml
p7866
sg5
S'25864858'
p7867
sg7
S'25864858.xml'
p7868
sa(dp7869
g3
VNCT01270867.xml
p7870
sg5
S'22932714'
p7871
sg7
S'22932714.xml'
p7872
sa(dp7873
g3
VNCT01271686.xml
p7874
sg5
S'22918671'
p7875
sg7
S'22918671.xml'
p7876
sa(dp7877
g3
VNCT01274715.xml
p7878
sg5
S'22828177'
p7879
sg7
S'22828177.xml'
p7880
sa(dp7881
g3
VNCT01279044.xml
p7882
sg5
S'24510401'
p7883
sg7
S'24510401.xml'
p7884
sa(dp7885
g3
VNCT01281501.xml
p7886
sg5
S'22463973'
p7887
sg7
S'22463973.xml'
p7888
sa(dp7889
g3
VNCT01283152.xml
p7890
sg5
S'25243839'
p7891
sg7
S'25243839.xml'
p7892
sa(dp7893
g3
VNCT01283334.xml
p7894
sg5
S'25103371'
p7895
sg7
S'25103371.xml'
p7896
sa(dp7897
g3
VNCT01286324.xml
p7898
sg5
S'21939549'
p7899
sg7
S'21939549.xml'
p7900
sa(dp7901
g3
VNCT01288612.xml
p7902
sg5
S'25488897'
p7903
sg7
S'25488897.xml'
p7904
sa(dp7905
g3
VNCT01290484.xml
p7906
sg5
S'24656411'
p7907
sg7
S'24656411.xml'
p7908
sa(dp7909
g3
VNCT01293006.xml
p7910
sg5
S'25661282'
p7911
sg7
S'25661282.xml'
p7912
sa(dp7913
g3
VNCT01294709.xml
p7914
sg5
S'22278333'
p7915
sg7
S'22278333.xml'
p7916
sa(dp7917
g3
VNCT01301079.xml
p7918
sg5
S'16508405'
p7919
sg7
S'16508405.xml'
p7920
sa(dp7921
g3
VNCT01303627.xml
p7922
sg5
S'19864308'
p7923
sg7
S'19864308.xml'
p7924
sa(dp7925
g3
VNCT01307033.xml
p7926
sg5
S'24990091'
p7927
sg7
S'24990091.xml'
p7928
sa(dp7929
g3
VNCT01307046.xml
p7930
sg5
S'24990091'
p7931
sg7
S'24990091.xml'
p7932
sa(dp7933
g3
VNCT01312272.xml
p7934
sg5
S'23676253'
p7935
sg7
S'23676253.xml'
p7936
sa(dp7937
g3
VNCT01314443.xml
p7938
sg5
S'24075893'
p7939
sg7
S'24075893.xml'
p7940
sa(dp7941
g3
VNCT01314742.xml
p7942
sg5
S'23608625'
p7943
sg7
S'23608625.xml'
p7944
sa(dp7945
g3
VNCT01319552.xml
p7946
sg5
S'22021369'
p7947
sg7
S'22021369.xml'
p7948
sa(dp7949
g3
VNCT01321710.xml
p7950
sg5
S'21243655'
p7951
sg7
S'21243655.xml'
p7952
sa(dp7953
g3
VNCT01321723.xml
p7954
sg5
S'23234813'
p7955
sg7
S'23234813.xml'
p7956
sa(dp7957
g3
VNCT01324440.xml
p7958
sg5
S'22192849'
p7959
sg7
S'22192849.xml'
p7960
sa(dp7961
g3
VNCT01330381.xml
p7962
sg5
S'25239590'
p7963
sg7
S'25239590.xml'
p7964
sa(dp7965
g3
VNCT01339013.xml
p7966
sg5
S'24257381'
p7967
sg7
S'24257381.xml'
p7968
sa(dp7969
g3
VNCT01342445.xml
p7970
sg5
S'22166471'
p7971
sg7
S'22166471.xml'
p7972
sa(dp7973
g3
VNCT01342510.xml
p7974
sg5
S'2200299'
p7975
sg7
S'2200299.xml'
p7976
sa(dp7977
g3
VNCT01346085.xml
p7978
sg5
S'21084848'
p7979
sg7
S'21084848.xml'
p7980
sa(dp7981
g3
VNCT01347580.xml
p7982
sg5
S'25175921'
p7983
sg7
S'25175921.xml'
p7984
sa(dp7985
g3
VNCT01351337.xml
p7986
sg5
S'22986591'
p7987
sg7
S'22986591.xml'
p7988
sa(dp7989
g3
VNCT01361620.xml
p7990
sg5
S'23454623'
p7991
sg7
S'23454623.xml'
p7992
sa(dp7993
g3
VNCT01362530.xml
p7994
sg5
S'25770814'
p7995
sg7
S'25770814.xml'
p7996
sa(dp7997
g3
VNCT01367860.xml
p7998
sg5
S'9820717'
p7999
sg7
S'9820717.xml'
p8000
sa(dp8001
g3
VNCT01370590.xml
p8002
sg5
S'25431239'
p8003
sg7
S'25431239.xml'
p8004
sa(dp8005
g3
VNCT01370603.xml
p8006
sg5
S'25431239'
p8007
sg7
S'25431239.xml'
p8008
sa(dp8009
g3
VNCT01374438.xml
p8010
sg5
S'24931567'
p8011
sg7
S'24931567.xml'
p8012
sa(dp8013
g3
VNCT01374919.xml
p8014
sg5
S'23828252'
p8015
sg7
S'23828252.xml'
p8016
sa(dp8017
g3
VNCT01378117.xml
p8018
sg5
S'23877988'
p8019
sg7
S'23877988.xml'
p8020
sa(dp8021
g3
VNCT01380327.xml
p8022
sg5
S'24184147'
p8023
sg7
S'24184147.xml'
p8024
sa(dp8025
g3
VNCT01385371.xml
p8026
sg5
S'24468255'
p8027
sg7
S'24468255.xml'
p8028
sa(dp8029
g3
VNCT01390259.xml
p8030
sg5
S'22688340'
p8031
sg7
S'22688340.xml'
p8032
sa(dp8033
g3
VNCT01392053.xml
p8034
sg5
S'11895532'
p8035
sg7
S'11895532.xml'
p8036
sa(dp8037
g3
VNCT01394692.xml
p8038
sg5
S'21868284'
p8039
sg7
S'21868284.xml'
p8040
sa(dp8041
g3
VNCT01396005.xml
p8042
sg5
S'25666027'
p8043
sg7
S'25666027.xml'
p8044
sa(dp8045
g3
VNCT01398982.xml
p8046
sg5
S'25347623'
p8047
sg7
S'25347623.xml'
p8048
sa(dp8049
g3
VNCT01400698.xml
p8050
sg5
S'16772718'
p8051
sg7
S'16772718.xml'
p8052
sa(dp8053
g3
VNCT01402427.xml
p8054
sg5
S'24732918'
p8055
sg7
S'24732918.xml'
p8056
sa(dp8057
g3
VNCT01404923.xml
p8058
sg5
S'24147869'
p8059
sg7
S'24147869.xml'
p8060
sa(dp8061
g3
VNCT01411891.xml
p8062
sg5
S'17403800'
p8063
sg7
S'17403800.xml'
p8064
sa(dp8065
g3
VNCT01414634.xml
p8066
sg5
S'23740901'
p8067
sg7
S'23740901.xml'
p8068
sa(dp8069
g3
VNCT01418703.xml
p8070
sg5
S'22688340'
p8071
sg7
S'22688340.xml'
p8072
sa(dp8073
g3
VNCT01427309.xml
p8074
sg5
S'25119609'
p8075
sg7
S'25119609.xml'
p8076
sa(dp8077
g3
VNCT01430325.xml
p8078
sg5
S'22908836'
p8079
sg7
S'22908836.xml'
p8080
sa(dp8081
g3
VNCT01431014.xml
p8082
sg5
S'17519721'
p8083
sg7
S'17519721.xml'
p8084
sa(dp8085
g3
VNCT01431846.xml
p8086
sg5
S'25593051'
p8087
sg7
S'25593051.xml'
p8088
sa(dp8089
g3
VNCT01434030.xml
p8090
sg5
S'22856588'
p8091
sg7
S'22856588.xml'
p8092
sa(dp8093
g3
VNCT01437267.xml
p8094
sg5
S'24290843'
p8095
sg7
S'24290843.xml'
p8096
sa(dp8097
g3
VNCT01440543.xml
p8098
sg5
S'22569079'
p8099
sg7
S'22569079.xml'
p8100
sa(dp8101
g3
VNCT01441843.xml
p8102
sg5
S'23635914'
p8103
sg7
S'23635914.xml'
p8104
sa(dp8105
g3
VNCT01448213.xml
p8106
sg5
S'25062336'
p8107
sg7
S'25062336.xml'
p8108
sa(dp8109
g3
VNCT01449955.xml
p8110
sg5
S'23376868'
p8111
sg7
S'23376868.xml'
p8112
sa(dp8113
g3
VNCT01451554.xml
p8114
sg5
S'21906302'
p8115
sg7
S'21906302.xml'
p8116
sa(dp8117
g3
VNCT01451814.xml
p8118
sg5
S'25646352'
p8119
sg7
S'25646352.xml'
p8120
sa(dp8121
g3
VNCT01453036.xml
p8122
sg5
S'20571304'
p8123
sg7
S'20571304.xml'
p8124
sa(dp8125
g3
VNCT01454414.xml
p8126
sg5
S'24745637'
p8127
sg7
S'24745637.xml'
p8128
sa(dp8129
g3
VNCT01459783.xml
p8130
sg5
S'25656074'
p8131
sg7
S'25656074.xml'
p8132
sa(dp8133
g3
VNCT01462045.xml
p8134
sg5
S'23720785'
p8135
sg7
S'23720785.xml'
p8136
sa(dp8137
g3
VNCT01462266.xml
p8138
sg5
S'25820927'
p8139
sg7
S'25820927.xml'
p8140
sa(dp8141
g3
VNCT01462370.xml
p8142
sg5
S'24960147'
p8143
sg7
S'24960147.xml'
p8144
sa(dp8145
g3
VNCT01462773.xml
p8146
sg5
S'24316557'
p8147
sg7
S'24316557.xml'
p8148
sa(dp8149
g3
VNCT01466192.xml
p8150
sg5
S'25196718'
p8151
sg7
S'25196718.xml'
p8152
sa(dp8153
g3
VNCT01468584.xml
p8154
sg5
S'25196718'
p8155
sg7
S'25196718.xml'
p8156
sa(dp8157
g3
VNCT01475838.xml
p8158
sg5
S'24908551'
p8159
sg7
S'24908551.xml'
p8160
sa(dp8161
g3
VNCT01489891.xml
p8162
sg5
S'21334240'
p8163
sg7
S'21334240.xml'
p8164
sa(dp8165
g3
VNCT01490931.xml
p8166
sg5
S'24564610'
p8167
sg7
S'24564610.xml'
p8168
sa(dp8169
g3
VNCT01499082.xml
p8170
sg5
S'25078900'
p8171
sg7
S'25078900.xml'
p8172
sa(dp8173
g3
VNCT01499095.xml
p8174
sg5
S'25193531'
p8175
sg7
S'25193531.xml'
p8176
sa(dp8177
g3
VNCT01507051.xml
p8178
sg5
S'24528331'
p8179
sg7
S'24528331.xml'
p8180
sa(dp8181
g3
VNCT01509664.xml
p8182
sg5
S'23596089'
p8183
sg7
S'23596089.xml'
p8184
sa(dp8185
g3
VNCT01513122.xml
p8186
sg5
S'23921615'
p8187
sg7
S'23921615.xml'
p8188
sa(dp8189
g3
VNCT01515540.xml
p8190
sg5
S'18950528'
p8191
sg7
S'18950528.xml'
p8192
sa(dp8193
g3
VNCT01520532.xml
p8194
sg5
S'23983245'
p8195
sg7
S'23983245.xml'
p8196
sa(dp8197
g3
VNCT01522924.xml
p8198
sg5
S'17761623'
p8199
sg7
S'17761623.xml'
p8200
sa(dp8201
g3
VNCT01531725.xml
p8202
sg5
S'23164477'
p8203
sg7
S'23164477.xml'
p8204
sa(dp8205
g3
VNCT01547247.xml
p8206
sg5
S'23808948'
p8207
sg7
S'23808948.xml'
p8208
sa(dp8209
g3
VNCT01552694.xml
p8210
sg5
S'25938633'
p8211
sg7
S'25938633.xml'
p8212
sa(dp8213
g3
VNCT01554163.xml
p8214
sg5
S'25133963'
p8215
sg7
S'25133963.xml'
p8216
sa(dp8217
g3
VNCT01554904.xml
p8218
sg5
S'12572260'
p8219
sg7
S'12572260.xml'
p8220
sa(dp8221
g3
VNCT01556906.xml
p8222
sg5
S'17215532'
p8223
sg7
S'17215532.xml'
p8224
sa(dp8225
g3
VNCT01557699.xml
p8226
sg5
S'25446830'
p8227
sg7
S'25446830.xml'
p8228
sa(dp8229
g3
VNCT01558297.xml
p8230
sg5
S'25298016'
p8231
sg7
S'25298016.xml'
p8232
sa(dp8233
g3
VNCT01560819.xml
p8234
sg5
S'23542823'
p8235
sg7
S'23542823.xml'
p8236
sa(dp8237
g3
VNCT01565291.xml
p8238
sg5
S'20501908'
p8239
sg7
S'20501908.xml'
p8240
sa(dp8241
g3
VNCT01570309.xml
p8242
sg5
S'23184900'
p8243
sg7
S'23184900.xml'
p8244
sa(dp8245
g3
VNCT01573000.xml
p8246
sg5
S'18474309'
p8247
sg7
S'18474309.xml'
p8248
sa(dp8249
g3
VNCT01578980.xml
p8250
sg5
S'23801798'
p8251
sg7
S'23801798.xml'
p8252
sa(dp8253
g3
VNCT01581008.xml
p8254
sg5
S'24329424'
p8255
sg7
S'24329424.xml'
p8256
sa(dp8257
g3
VNCT01582139.xml
p8258
sg5
S'24702135'
p8259
sg7
S'24702135.xml'
p8260
sa(dp8261
g3
VNCT01582308.xml
p8262
sg5
S'24163113'
p8263
sg7
S'24163113.xml'
p8264
sa(dp8265
g3
VNCT01591681.xml
p8266
sg5
S'24804697'
p8267
sg7
S'24804697.xml'
p8268
sa(dp8269
g3
VNCT01593852.xml
p8270
sg5
S'23973946'
p8271
sg7
S'23973946.xml'
p8272
sa(dp8273
g3
VNCT01599234.xml
p8274
sg5
S'20307378'
p8275
sg7
S'20307378.xml'
p8276
sa(dp8277
g3
VNCT01600703.xml
p8278
sg5
S'24584549'
p8279
sg7
S'24584549.xml'
p8280
sa(dp8281
g3
VNCT01604265.xml
p8282
sg5
S'16186518'
p8283
sg7
S'16186518.xml'
p8284
sa(dp8285
g3
VNCT01605292.xml
p8286
sg5
S'25596790'
p8287
sg7
S'25596790.xml'
p8288
sa(dp8289
g3
VNCT01606137.xml
p8290
sg5
S'22878432'
p8291
sg7
S'22878432.xml'
p8292
sa(dp8293
g3
VNCT01606189.xml
p8294
sg5
S'15561385'
p8295
sg7
S'15561385.xml'
p8296
sa(dp8297
g3
VNCT01607411.xml
p8298
sg5
S'24283282'
p8299
sg7
S'24283282.xml'
p8300
sa(dp8301
g3
VNCT01610687.xml
p8302
sg5
S'17086911'
p8303
sg7
S'17086911.xml'
p8304
sa(dp8305
g3
VNCT01610700.xml
p8306
sg5
S'15327042'
p8307
sg7
S'15327042.xml'
p8308
sa(dp8309
g3
VNCT01610713.xml
p8310
sg5
S'15327042'
p8311
sg7
S'15327042.xml'
p8312
sa(dp8313
g3
VNCT01611571.xml
p8314
sg5
S'23099796'
p8315
sg7
S'23099796.xml'
p8316
sa(dp8317
g3
VNCT01613417.xml
p8318
sg5
S'25300984'
p8319
sg7
S'25300984.xml'
p8320
sa(dp8321
g3
VNCT01615731.xml
p8322
sg5
S'25499589'
p8323
sg7
S'25499589.xml'
p8324
sa(dp8325
g3
VNCT01622673.xml
p8326
sg5
S'20921313'
p8327
sg7
S'20921313.xml'
p8328
sa(dp8329
g3
VNCT01641640.xml
p8330
sg5
S'23607594'
p8331
sg7
S'23607594.xml'
p8332
sa(dp8333
g3
VNCT01642485.xml
p8334
sg5
S'23713767'
p8335
sg7
S'23713767.xml'
p8336
sa(dp8337
g3
VNCT01655043.xml
p8338
sg5
S'17194875'
p8339
sg7
S'17194875.xml'
p8340
sa(dp8341
g3
VNCT01660698.xml
p8342
sg5
S'23299716'
p8343
sg7
S'23299716.xml'
p8344
sa(dp8345
g3
VNCT01663922.xml
p8346
sg5
S'24610312'
p8347
sg7
S'24610312.xml'
p8348
sa(dp8349
g3
VNCT01665911.xml
p8350
sg5
S'24513113'
p8351
sg7
S'24513113.xml'
p8352
sa(dp8353
g3
VNCT01676220.xml
p8354
sg5
S'25641260'
p8355
sg7
S'25641260.xml'
p8356
sa(dp8357
g3
VNCT01682720.xml
p8358
sg5
S'24795201'
p8359
sg7
S'24795201.xml'
p8360
sa(dp8361
g3
VNCT01684839.xml
p8362
sg5
S'1262369'
p8363
sg7
S'1262369.xml'
p8364
sa(dp8365
g3
VNCT01685320.xml
p8366
sg5
S'21965048'
p8367
sg7
S'21965048.xml'
p8368
sa(dp8369
g3
VNCT01686503.xml
p8370
sg5
S'25567841'
p8371
sg7
S'25567841.xml'
p8372
sa(dp8373
g3
VNCT01687270.xml
p8374
sg5
S'25304641'
p8375
sg7
S'25304641.xml'
p8376
sa(dp8377
g3
VNCT01689441.xml
p8378
sg5
S'25029202'
p8379
sg7
S'25029202.xml'
p8380
sa(dp8381
g3
VNCT01700387.xml
p8382
sg5
S'17105455'
p8383
sg7
S'17105455.xml'
p8384
sa(dp8385
g3
VNCT01707654.xml
p8386
sg5
S'20888502'
p8387
sg7
S'20888502.xml'
p8388
sa(dp8389
g3
VNCT01709708.xml
p8390
sg5
S'18471125'
p8391
sg7
S'18471125.xml'
p8392
sa(dp8393
g3
VNCT01710657.xml
p8394
sg5
S'23859801'
p8395
sg7
S'23859801.xml'
p8396
sa(dp8397
g3
VNCT01714505.xml
p8398
sg5
S'24929429'
p8399
sg7
S'24929429.xml'
p8400
sa(dp8401
g3
VNCT01736930.xml
p8402
sg5
S'23883408'
p8403
sg7
S'23883408.xml'
p8404
sa(dp8405
g3
VNCT01739803.xml
p8406
sg5
S'23819827'
p8407
sg7
S'23819827.xml'
p8408
sa(dp8409
g3
VNCT01748227.xml
p8410
sg5
S'25312858'
p8411
sg7
S'25312858.xml'
p8412
sa(dp8413
g3
VNCT01755455.xml
p8414
sg5
S'24332997'
p8415
sg7
S'24332997.xml'
p8416
sa(dp8417
g3
VNCT01762722.xml
p8418
sg5
S'22883447'
p8419
sg7
S'22883447.xml'
p8420
sa(dp8421
g3
VNCT01769105.xml
p8422
sg5
S'24725326'
p8423
sg7
S'24725326.xml'
p8424
sa(dp8425
g3
VNCT01777763.xml
p8426
sg5
S'25049247'
p8427
sg7
S'25049247.xml'
p8428
sa(dp8429
g3
VNCT01778296.xml
p8430
sg5
S'20888502'
p8431
sg7
S'20888502.xml'
p8432
sa(dp8433
g3
VNCT01780389.xml
p8434
sg5
S'24392250'
p8435
sg7
S'24392250.xml'
p8436
sa(dp8437
g3
VNCT01780584.xml
p8438
sg5
S'20837917'
p8439
sg7
S'20837917.xml'
p8440
sa(dp8441
g3
VNCT01781169.xml
p8442
sg5
S'9519960'
p8443
sg7
S'9519960.xml'
p8444
sa(dp8445
g3
VNCT01786109.xml
p8446
sg5
S'21803011'
p8447
sg7
S'21803011.xml'
p8448
sa(dp8449
g3
VNCT01801475.xml
p8450
sg5
S'25670522'
p8451
sg7
S'25670522.xml'
p8452
sa(dp8453
g3
VNCT01802554.xml
p8454
sg5
S'23916631'
p8455
sg7
S'23916631.xml'
p8456
sa(dp8457
g3
VNCT01824498.xml
p8458
sg5
S'21745038'
p8459
sg7
S'21745038.xml'
p8460
sa(dp8461
g3
VNCT01834404.xml
p8462
sg5
S'25486131'
p8463
sg7
S'25486131.xml'
p8464
sa(dp8465
g3
VNCT01861457.xml
p8466
sg5
S'24881497'
p8467
sg7
S'24881497.xml'
p8468
sa(dp8469
g3
VNCT01875159.xml
p8470
sg5
S'24445955'
p8471
sg7
S'24445955.xml'
p8472
sa(dp8473
g3
VNCT01875510.xml
p8474
sg5
S'21199856'
p8475
sg7
S'21199856.xml'
p8476
sa(dp8477
g3
VNCT01880723.xml
p8478
sg5
S'21889619'
p8479
sg7
S'21889619.xml'
p8480
sa(dp8481
g3
VNCT01904071.xml
p8482
sg5
S'22494596'
p8483
sg7
S'22494596.xml'
p8484
sa(dp8485
g3
VNCT01964547.xml
p8486
sg5
S'24151639'
p8487
sg7
S'24151639.xml'
p8488
sa(dp8489
g3
VNCT01973413.xml
p8490
sg5
S'24879841'
p8491
sg7
S'24879841.xml'
p8492
sa(dp8493
g3
VNCT02028676.xml
p8494
sg5
S'23473847'
p8495
sg7
S'23473847.xml'
p8496
sa(dp8497
g3
VNCT02114892.xml
p8498
sg5
S'16626303'
p8499
sg7
S'16626303.xml'
p8500
sa(dp8501
g3
VNCT02185729.xml
p8502
sg5
S'21832112'
p8503
sg7
S'21832112.xml'
p8504
sa(dp8505
g3
VNCT02271477.xml
p8506
sg5
S'17285286'
p8507
sg7
S'17285286.xml'
p8508
sa(dp8509
g3
VNCT02303704.xml
p8510
sg5
S'10654508'
p8511
sg7
S'10654508.xml'
p8512
sa.